(lp0
ccopy_reg
_reconstructor
p1
(cParticle
Reference
p2
c__builtin__
object
p3
Ntp4
Rp5
(dp6
S'index'
p7
I5050
sS'fit'
p8
(lp9
cnumpy.core.multiarray
scalar
p10
(cnumpy
dtype
p11
(S'f8'
p12
I0
I1
tp13
Rp14
(I3
S'<'
p15
NNNI-1
I-1
I0
tp16
bS'\x00\x00\x00\x00\x00\x00):'
p17
tp18
Rp19
ag10
(g14
S'\x05\x00\x00\x00\x00\x009@'
p20
tp21
Rp22
asS'pos'
p23
cnumpy.core.multiarray
_reconstruct
p24
(cnumpy.matrixlib.defmatrix
matrix
p25
(I0
tp26
S'b'
p27
tp28
Rp29
(I1
(I1
I2
tp30
g14
I00
S'\x00\x00\x00\x00\x00\x00\x04\xbd\x00\x00\x00\x00\x00\x00\x04\xbd'
p31
tp32
bsS'nondominated'
p33
I01
sbag1
(g2
g3
Ntp34
Rp35
(dp36
g7
I5149
sg8
(lp37
g10
(g14
S'R\x14\xaeG\xe1zt?'
p38
tp39
Rp40
ag10
(g14
S'\xb4G\xe1z\x14N8@'
p41
tp42
Rp43
asg23
g24
(g25
(I0
tp44
g27
tp45
Rp46
(I1
(I1
I2
tp47
g14
I00
S'\x80\x94\x99\x99\x99\x99\xa9?\x80\x9e\x99\x99\x99\x99\xa9\xbf'
p48
tp49
bsg33
I01
sbag1
(g2
g3
Ntp50
Rp51
(dp52
g7
I5150
sg8
(lp53
g10
(g14
S'R\x0c\xaeG\xe1zd?'
p54
tp55
Rp56
ag10
(g14
S'\x10\xd7\xa3p=\x9a8@'
p57
tp58
Rp59
asg23
g24
(g25
(I0
tp60
g27
tp61
Rp62
(I1
(I1
I2
tp63
g14
I00
S'\x80\x94\x99\x99\x99\x99\xa9?\x00\x00\x00\x00\x00\x00\x04\xbd'
p64
tp65
bsg33
I01
sbag1
(g2
g3
Ntp66
Rp67
(dp68
g7
I5248
sg8
(lp69
g10
(g14
S'R\x14\xaeG\xe1z\x94?'
p70
tp71
Rp72
ag10
(g14
S'%\x85\xebQ\xb8\x9e7@'
p73
tp74
Rp75
asg23
g24
(g25
(I0
tp76
g27
tp77
Rp78
(I1
(I1
I2
tp79
g14
I00
S'\x00\x97\x99\x99\x99\x99\xb9?\x00\x9c\x99\x99\x99\x99\xb9\xbf'
p80
tp81
bsg33
I01
sbag1
(g2
g3
Ntp82
Rp83
(dp84
g7
I5249
sg8
(lp85
g10
(g14
S'f\x97\x99\x99\x99\x99\x89?'
p86
tp87
Rp88
ag10
(g14
S'\xa0\x99\x99\x99\x99\xe97@'
p89
tp90
Rp91
asg23
g24
(g25
(I0
tp92
g27
tp93
Rp94
(I1
(I1
I2
tp95
g14
I00
S'\x00\x97\x99\x99\x99\x99\xb9?\x80\x9e\x99\x99\x99\x99\xa9\xbf'
p96
tp97
bsg33
I01
sbag1
(g2
g3
Ntp98
Rp99
(dp100
g7
I5250
sg8
(lp101
g10
(g14
S'R\x10\xaeG\xe1z\x84?'
p102
tp103
Rp104
ag10
(g14
S'\xfb(\\\x8f\xc258@'
p105
tp106
Rp107
asg23
g24
(g25
(I0
tp108
g27
tp109
Rp110
(I1
(I1
I2
tp111
g14
I00
S'\x00\x97\x99\x99\x99\x99\xb9?\x00\x00\x00\x00\x00\x00\x04\xbd'
p112
tp113
bsg33
I01
sbag1
(g2
g3
Ntp114
Rp115
(dp116
g7
I5347
sg8
(lp117
g10
(g14
S'\xdc\xd6\xa3p=\n\xa7?'
p118
tp119
Rp120
ag10
(g14
S'Y\xb8\x1e\x85\xeb\xf16@'
p121
tp122
Rp123
asg23
g24
(g25
(I0
tp124
g27
tp125
Rp126
(I1
(I1
I2
tp127
g14
I00
S'\xe013333\xc3?`43333\xc3\xbf'
p128
tp129
bsg33
I01
sbag1
(g2
g3
Ntp130
Rp131
(dp132
g7
I5348
sg8
(lp133
g10
(g14
S'\x02p=\n\xd7\xa3\xa0?'
p134
tp135
Rp136
ag10
(g14
S'\xf2Q\xb8\x1e\x85;7@'
p137
tp138
Rp139
asg23
g24
(g25
(I0
tp140
g27
tp141
Rp142
(I1
(I1
I2
tp143
g14
I00
S'\xe013333\xc3?\x00\x9c\x99\x99\x99\x99\xb9\xbf'
p144
tp145
bsg33
I01
sbag1
(g2
g3
Ntp146
Rp147
(dp148
g7
I5349
sg8
(lp149
g10
(g14
S'f\x97\x99\x99\x99\x99\x99?'
p150
tp151
Rp152
ag10
(g14
S'lffff\x867@'
p153
tp154
Rp155
asg23
g24
(g25
(I0
tp156
g27
tp157
Rp158
(I1
(I1
I2
tp159
g14
I00
S'\xe013333\xc3?\x80\x9e\x99\x99\x99\x99\xa9\xbf'
p160
tp161
bsg33
I01
sbag1
(g2
g3
Ntp162
Rp163
(dp164
g7
I5446
sg8
(lp165
g10
(g14
S'R\x14\xaeG\xe1z\xb4?'
p166
tp167
Rp168
ag10
(g14
S'O\xe1z\x14\xaeG6@'
p169
tp170
Rp171
asg23
g24
(g25
(I0
tp172
g27
tp173
Rp174
(I1
(I1
I2
tp175
g14
I00
S'@\x98\x99\x99\x99\x99\xc9?\xc0\x9a\x99\x99\x99\x99\xc9\xbf'
p176
tp177
bsg33
I01
sbag1
(g2
g3
Ntp178
Rp179
(dp180
g7
I5447
sg8
(lp181
g10
(g14
S'@\xff\xff\xff\xff\xff\xaf?'
p182
tp183
Rp184
ag10
(g14
S'\x07\x00\x00\x00\x00\x906@'
p185
tp186
Rp187
asg23
g24
(g25
(I0
tp188
g27
tp189
Rp190
(I1
(I1
I2
tp191
g14
I00
S'@\x98\x99\x99\x99\x99\xc9?`43333\xc3\xbf'
p192
tp193
bsg33
I01
sbag1
(g2
g3
Ntp194
Rp195
(dp196
g7
I5448
sg8
(lp197
g10
(g14
S'f\x98\x99\x99\x99\x99\xa9?'
p198
tp199
Rp200
ag10
(g14
S'\xa0\x99\x99\x99\x99\xd96@'
p201
tp202
Rp203
asg23
g24
(g25
(I0
tp204
g27
tp205
Rp206
(I1
(I1
I2
tp207
g14
I00
S'@\x98\x99\x99\x99\x99\xc9?\x00\x9c\x99\x99\x99\x99\xb9\xbf'
p208
tp209
bsg33
I01
sbag1
(g2
g3
Ntp210
Rp211
(dp212
g7
I5449
sg8
(lp213
g10
(g14
S'\x17\xf4(\\\x8f\xc2\xa5?'
p214
tp215
Rp216
ag10
(g14
S'\x1a\xaeG\xe1z$7@'
p217
tp218
Rp219
asg23
g24
(g25
(I0
tp220
g27
tp221
Rp222
(I1
(I1
I2
tp223
g14
I00
S'@\x98\x99\x99\x99\x99\xc9?\x80\x9e\x99\x99\x99\x99\xa9\xbf'
p224
tp225
bsg33
I01
sbag1
(g2
g3
Ntp226
Rp227
(dp228
g7
I5545
sg8
(lp229
g10
(g14
S'\xc0\xff\xff\xff\xff\xff\xbf?'
p230
tp231
Rp232
ag10
(g14
S'\x08\x00\x00\x00\x00\xa05@'
p233
tp234
Rp235
asg23
g24
(g25
(I0
tp236
g27
tp237
Rp238
(I1
(I1
I2
tp239
g14
I00
S'\xa0\xfe\xff\xff\xff\xff\xcf?\x90\x00\x00\x00\x00\x00\xd0\xbf'
p240
tp241
bsg33
I01
sbag1
(g2
g3
Ntp242
Rp243
(dp244
g7
I5546
sg8
(lp245
g10
(g14
S'\xc9\t\xd7\xa3p=\xba?'
p246
tp247
Rp248
ag10
(g14
S'\xdf\xa3p=\n\xe75@'
p249
tp250
Rp251
asg23
g24
(g25
(I0
tp252
g27
tp253
Rp254
(I1
(I1
I2
tp255
g14
I00
S'\xa0\xfe\xff\xff\xff\xff\xcf?\xc0\x9a\x99\x99\x99\x99\xc9\xbf'
p256
tp257
bsg33
I01
sbag1
(g2
g3
Ntp258
Rp259
(dp260
g7
I5547
sg8
(lp261
g10
(g14
S'\x17\xf5(\\\x8f\xc2\xb5?'
p262
tp263
Rp264
ag10
(g14
S'\x96\xc2\xf5(\\/6@'
p265
tp266
Rp267
asg23
g24
(g25
(I0
tp268
g27
tp269
Rp270
(I1
(I1
I2
tp271
g14
I00
S'\xa0\xfe\xff\xff\xff\xff\xcf?`43333\xc3\xbf'
p272
tp273
bsg33
I01
sbag1
(g2
g3
Ntp274
Rp275
(dp276
g7
I5548
sg8
(lp277
g10
(g14
S'\xaa\xc1\xf5(\\\x8f\xb2?'
p278
tp279
Rp280
ag10
(g14
S'0\\\x8f\xc2\xf5x6@'
p281
tp282
Rp283
asg23
g24
(g25
(I0
tp284
g27
tp285
Rp286
(I1
(I1
I2
tp287
g14
I00
S'\xa0\xfe\xff\xff\xff\xff\xcf?\x00\x9c\x99\x99\x99\x99\xb9\xbf'
p288
tp289
bsg33
I01
sbag1
(g2
g3
Ntp290
Rp291
(dp292
g7
I5644
sg8
(lp293
g10
(g14
S'\xdc\xd6\xa3p=\n\xc7?'
p294
tp295
Rp296
ag10
(g14
S'\x84\x14\xaeG\xe1\xfa4@'
p297
tp298
Rp299
asg23
g24
(g25
(I0
tp300
g27
tp301
Rp302
(I1
(I1
I2
tp303
g14
I00
S'\x8023333\xd3?\xc033333\xd3\xbf'
p304
tp305
bsg33
I01
sbag1
(g2
g3
Ntp306
Rp307
(dp308
g7
I5645
sg8
(lp309
g10
(g14
S'>\xebQ\xb8\x1e\x85\xc3?'
p310
tp311
Rp312
ag10
(g14
S'y=\n\xd7\xa3@5@'
p313
tp314
Rp315
asg23
g24
(g25
(I0
tp316
g27
tp317
Rp318
(I1
(I1
I2
tp319
g14
I00
S'\x8023333\xd3?\x90\x00\x00\x00\x00\x00\xd0\xbf'
p320
tp321
bsg33
I01
sbag1
(g2
g3
Ntp322
Rp323
(dp324
g7
I5646
sg8
(lp325
g10
(g14
S'Bp=\n\xd7\xa3\xc0?'
p326
tp327
Rp328
ag10
(g14
S'P\xe1z\x14\xae\x875@'
p329
tp330
Rp331
asg23
g24
(g25
(I0
tp332
g27
tp333
Rp334
(I1
(I1
I2
tp335
g14
I00
S'\x8023333\xd3?\xc0\x9a\x99\x99\x99\x99\xc9\xbf'
p336
tp337
bsg33
I01
sbag1
(g2
g3
Ntp338
Rp339
(dp340
g7
I5647
sg8
(lp341
g10
(g14
S'\xd3\xcb\xcc\xcc\xcc\xcc\xbc?'
p342
tp343
Rp344
ag10
(g14
S'\x08\x00\x00\x00\x00\xd05@'
p345
tp346
Rp347
asg23
g24
(g25
(I0
tp348
g27
tp349
Rp350
(I1
(I1
I2
tp351
g14
I00
S'\x8023333\xd3?`43333\xc3\xbf'
p352
tp353
bsg33
I01
sbag1
(g2
g3
Ntp354
Rp355
(dp356
g7
I5648
sg8
(lp357
g10
(g14
S'f\x98\x99\x99\x99\x99\xb9?'
p358
tp359
Rp360
ag10
(g14
S'\xa0\x99\x99\x99\x99\x196@'
p361
tp362
Rp363
asg23
g24
(g25
(I0
tp364
g27
tp365
Rp366
(I1
(I1
I2
tp367
g14
I00
S'\x8023333\xd3?\x00\x9c\x99\x99\x99\x99\xb9\xbf'
p368
tp369
bsg33
I01
sbag1
(g2
g3
Ntp370
Rp371
(dp372
g7
I5743
sg8
(lp373
g10
(g14
S'\x1d\x8f\xc2\xf5(\\\xcf?'
p374
tp375
Rp376
ag10
(g14
S'\xc2\x1e\x85\xebQX4@'
p377
tp378
Rp379
asg23
g24
(g25
(I0
tp380
g27
tp381
Rp382
(I1
(I1
I2
tp383
g14
I00
S'\xb0effff\xd6?\xf0fffff\xd6\xbf'
p384
tp385
bsg33
I01
sbag1
(g2
g3
Ntp386
Rp387
(dp388
g7
I5744
sg8
(lp389
g10
(g14
S'\xdc23333\xcb?'
p390
tp391
Rp392
ag10
(g14
S'\xd6\xcc\xcc\xcc\xcc\x9c4@'
p393
tp394
Rp395
asg23
g24
(g25
(I0
tp396
g27
tp397
Rp398
(I1
(I1
I2
tp399
g14
I00
S'\xb0effff\xd6?\xc033333\xd3\xbf'
p400
tp401
bsg33
I01
sbag1
(g2
g3
Ntp402
Rp403
(dp404
g7
I5745
sg8
(lp405
g10
(g14
S'>G\xe1z\x14\xae\xc7?'
p406
tp407
Rp408
ag10
(g14
S'\xcb\xf5(\\\x8f\xe24@'
p409
tp410
Rp411
asg23
g24
(g25
(I0
tp412
g27
tp413
Rp414
(I1
(I1
I2
tp415
g14
I00
S'\xb0effff\xd6?\x90\x00\x00\x00\x00\x00\xd0\xbf'
p416
tp417
bsg33
I01
sbag1
(g2
g3
Ntp418
Rp419
(dp420
g7
I5746
sg8
(lp421
g10
(g14
S'C\xcc\xcc\xcc\xcc\xcc\xc4?'
p422
tp423
Rp424
ag10
(g14
S'\xa2\x99\x99\x99\x99)5@'
p425
tp426
Rp427
asg23
g24
(g25
(I0
tp428
g27
tp429
Rp430
(I1
(I1
I2
tp431
g14
I00
S'\xb0effff\xd6?\xc0\x9a\x99\x99\x99\x99\xc9\xbf'
p432
tp433
bsg33
I01
sbag1
(g2
g3
Ntp434
Rp435
(dp436
g7
I5747
sg8
(lp437
g10
(g14
S'\xea\xc1\xf5(\\\x8f\xc2?'
p438
tp439
Rp440
ag10
(g14
S'Z\xb8\x1e\x85\xebq5@'
p441
tp442
Rp443
asg23
g24
(g25
(I0
tp444
g27
tp445
Rp446
(I1
(I1
I2
tp447
g14
I00
S'\xb0effff\xd6?`43333\xc3\xbf'
p448
tp449
bsg33
I01
sbag1
(g2
g3
Ntp450
Rp451
(dp452
g7
I5842
sg8
(lp453
g10
(g14
S'R\x14\xaeG\xe1z\xd4?'
p454
tp455
Rp456
ag10
(g14
S'\xc2\x1e\x85\xebQ\xb83@'
p457
tp458
Rp459
asg23
g24
(g25
(I0
tp460
g27
tp461
Rp462
(I1
(I1
I2
tp463
g14
I00
S'\xe0\x98\x99\x99\x99\x99\xd9? \x9a\x99\x99\x99\x99\xd9\xbf'
p464
tp465
bsg33
I01
sbag1
(g2
g3
Ntp466
Rp467
(dp468
g7
I5843
sg8
(lp469
g10
(g14
S'\xe0\xadG\xe1z\x14\xd2?'
p470
tp471
Rp472
ag10
(g14
S'\xf5Q\xb8\x1e\x85\xfb3@'
p473
tp474
Rp475
asg23
g24
(g25
(I0
tp476
g27
tp477
Rp478
(I1
(I1
I2
tp479
g14
I00
S'\xe0\x98\x99\x99\x99\x99\xd9?\xf0fffff\xd6\xbf'
p480
tp481
bsg33
I01
sbag1
(g2
g3
Ntp482
Rp483
(dp484
g7
I5844
sg8
(lp485
g10
(g14
S'\x80\xff\xff\xff\xff\xff\xcf?'
p486
tp487
Rp488
ag10
(g14
S'\t\x00\x00\x00\x00@4@'
p489
tp490
Rp491
asg23
g24
(g25
(I0
tp492
g27
tp493
Rp494
(I1
(I1
I2
tp495
g14
I00
S'\xe0\x98\x99\x99\x99\x99\xd9?\xc033333\xd3\xbf'
p496
tp497
bsg33
I01
sbag1
(g2
g3
Ntp498
Rp499
(dp500
g7
I5845
sg8
(lp501
g10
(g14
S'\xe2\x13\xaeG\xe1z\xcc?'
p502
tp503
Rp504
ag10
(g14
S'\xfe(\\\x8f\xc2\x854@'
p505
tp506
Rp507
asg23
g24
(g25
(I0
tp508
g27
tp509
Rp510
(I1
(I1
I2
tp511
g14
I00
S'\xe0\x98\x99\x99\x99\x99\xd9?\x90\x00\x00\x00\x00\x00\xd0\xbf'
p512
tp513
bsg33
I01
sbag1
(g2
g3
Ntp514
Rp515
(dp516
g7
I5846
sg8
(lp517
g10
(g14
S'\xe6\x98\x99\x99\x99\x99\xc9?'
p518
tp519
Rp520
ag10
(g14
S'\xd5\xcc\xcc\xcc\xcc\xcc4@'
p521
tp522
Rp523
asg23
g24
(g25
(I0
tp524
g27
tp525
Rp526
(I1
(I1
I2
tp527
g14
I00
S'\xe0\x98\x99\x99\x99\x99\xd9?\xc0\x9a\x99\x99\x99\x99\xc9\xbf'
p528
tp529
bsg33
I01
sbag1
(g2
g3
Ntp530
Rp531
(dp532
g7
I5941
sg8
(lp533
g10
(g14
S'\xb8Q\xb8\x1e\x85\xeb\xd9?'
p534
tp535
Rp536
ag10
(g14
S'\x85\x14\xaeG\xe1\x1a3@'
p537
tp538
Rp539
asg23
g24
(g25
(I0
tp540
g27
tp541
Rp542
(I1
(I1
I2
tp543
g14
I00
S'\x10\xcc\xcc\xcc\xcc\xcc\xdc?P\xcd\xcc\xcc\xcc\xcc\xdc\xbf'
p544
tp545
bsg33
I01
sbag1
(g2
g3
Ntp546
Rp547
(dp548
g7
I5942
sg8
(lp549
g10
(g14
S'\xf523333\xd7?'
p550
tp551
Rp552
ag10
(g14
S'\xd7\xcc\xcc\xcc\xcc\\3@'
p553
tp554
Rp555
asg23
g24
(g25
(I0
tp556
g27
tp557
Rp558
(I1
(I1
I2
tp559
g14
I00
S'\x10\xcc\xcc\xcc\xcc\xcc\xdc? \x9a\x99\x99\x99\x99\xd9\xbf'
p560
tp561
bsg33
I01
sbag1
(g2
g3
Ntp562
Rp563
(dp564
g7
I5943
sg8
(lp565
g10
(g14
S'\x83\xcc\xcc\xcc\xcc\xcc\xd4?'
p566
tp567
Rp568
ag10
(g14
S'\t\x00\x00\x00\x00\xa03@'
p569
tp570
Rp571
asg23
g24
(g25
(I0
tp572
g27
tp573
Rp574
(I1
(I1
I2
tp575
g14
I00
S'\x10\xcc\xcc\xcc\xcc\xcc\xdc?\xf0fffff\xd6\xbf'
p576
tp577
bsg33
I01
sbag1
(g2
g3
Ntp578
Rp579
(dp580
g7
I5944
sg8
(lp581
g10
(g14
S'c\x1e\x85\xebQ\xb8\xd2?'
p582
tp583
Rp584
ag10
(g14
S'\x1d\xaeG\xe1z\xe43@'
p585
tp586
Rp587
asg23
g24
(g25
(I0
tp588
g27
tp589
Rp590
(I1
(I1
I2
tp591
g14
I00
S'\x10\xcc\xcc\xcc\xcc\xcc\xdc?\xc033333\xd3\xbf'
p592
tp593
bsg33
I01
sbag1
(g2
g3
Ntp594
Rp595
(dp596
g7
I5945
sg8
(lp597
g10
(g14
S'\x94(\\\x8f\xc2\xf5\xd0?'
p598
tp599
Rp600
ag10
(g14
S'\x12\xd7\xa3p=*4@'
p601
tp602
Rp603
asg23
g24
(g25
(I0
tp604
g27
tp605
Rp606
(I1
(I1
I2
tp607
g14
I00
S'\x10\xcc\xcc\xcc\xcc\xcc\xdc?\x90\x00\x00\x00\x00\x00\xd0\xbf'
p608
tp609
bsg33
I01
sbag1
(g2
g3
Ntp610
Rp611
(dp612
g7
I5946
sg8
(lp613
g10
(g14
S',\xd6\xa3p=\n\xcf?'
p614
tp615
Rp616
ag10
(g14
S'\xe9z\x14\xaeGq4@'
p617
tp618
Rp619
asg23
g24
(g25
(I0
tp620
g27
tp621
Rp622
(I1
(I1
I2
tp623
g14
I00
S'\x10\xcc\xcc\xcc\xcc\xcc\xdc?\xc0\x9a\x99\x99\x99\x99\xc9\xbf'
p624
tp625
bsg33
I01
sbag1
(g2
g3
Ntp626
Rp627
(dp628
g7
I6040
sg8
(lp629
g10
(g14
S'\xc0\xff\xff\xff\xff\xff\xdf?'
p630
tp631
Rp632
ag10
(g14
S'\x0b\x00\x00\x00\x00\x802@'
p633
tp634
Rp635
asg23
g24
(g25
(I0
tp636
g27
tp637
Rp638
(I1
(I1
I2
tp639
g14
I00
S'@\xff\xff\xff\xff\xff\xdf?@\x00\x00\x00\x00\x00\xe0\xbf'
p640
tp641
bsg33
I01
sbag1
(g2
g3
Ntp642
Rp643
(dp644
g7
I6041
sg8
(lp645
g10
(g14
S'\xac(\\\x8f\xc2\xf5\xdc?'
p646
tp647
Rp648
ag10
(g14
S'{=\n\xd7\xa3\xc02@'
p649
tp650
Rp651
asg23
g24
(g25
(I0
tp652
g27
tp653
Rp654
(I1
(I1
I2
tp655
g14
I00
S'@\xff\xff\xff\xff\xff\xdf?P\xcd\xcc\xcc\xcc\xcc\xdc\xbf'
p656
tp657
bsg33
I01
sbag1
(g2
g3
Ntp658
Rp659
(dp660
g7
I6042
sg8
(lp661
g10
(g14
S'\xe9\t\xd7\xa3p=\xda?'
p662
tp663
Rp664
ag10
(g14
S'\xcd\xf5(\\\x8f\x023@'
p665
tp666
Rp667
asg23
g24
(g25
(I0
tp668
g27
tp669
Rp670
(I1
(I1
I2
tp671
g14
I00
S'@\xff\xff\xff\xff\xff\xdf? \x9a\x99\x99\x99\x99\xd9\xbf'
p672
tp673
bsg33
I01
sbag1
(g2
g3
Ntp674
Rp675
(dp676
g7
I6043
sg8
(lp677
g10
(g14
S'w\xa3p=\n\xd7\xd7?'
p678
tp679
Rp680
ag10
(g14
S'\xff(\\\x8f\xc2E3@'
p681
tp682
Rp683
asg23
g24
(g25
(I0
tp684
g27
tp685
Rp686
(I1
(I1
I2
tp687
g14
I00
S'@\xff\xff\xff\xff\xff\xdf?\xf0fffff\xd6\xbf'
p688
tp689
bsg33
I01
sbag1
(g2
g3
Ntp690
Rp691
(dp692
g7
I6044
sg8
(lp693
g10
(g14
S'W\xf5(\\\x8f\xc2\xd5?'
p694
tp695
Rp696
ag10
(g14
S'\x13\xd7\xa3p=\x8a3@'
p697
tp698
Rp699
asg23
g24
(g25
(I0
tp700
g27
tp701
Rp702
(I1
(I1
I2
tp703
g14
I00
S'@\xff\xff\xff\xff\xff\xdf?\xc033333\xd3\xbf'
p704
tp705
bsg33
I01
sbag1
(g2
g3
Ntp706
Rp707
(dp708
g7
I6045
sg8
(lp709
g10
(g14
S'\x88\xff\xff\xff\xff\xff\xd3?'
p710
tp711
Rp712
ag10
(g14
S'\x08\x00\x00\x00\x00\xd03@'
p713
tp714
Rp715
asg23
g24
(g25
(I0
tp716
g27
tp717
Rp718
(I1
(I1
I2
tp719
g14
I00
S'@\xff\xff\xff\xff\xff\xdf?\x90\x00\x00\x00\x00\x00\xd0\xbf'
p720
tp721
bsg33
I01
sbag1
(g2
g3
Ntp722
Rp723
(dp724
g7
I6139
sg8
(lp725
g10
(g14
S'5\x8f\xc2\xf5(\\\xe3?'
p726
tp727
Rp728
ag10
(g14
S'S\xe1z\x14\xae\xe71@'
p729
tp730
Rp731
asg23
g24
(g25
(I0
tp732
g27
tp733
Rp734
(I1
(I1
I2
tp735
g14
I00
S'8\x99\x99\x99\x99\x99\xe1?\xd8\x99\x99\x99\x99\x99\xe1\xbf'
p736
tp737
bsg33
I01
sbag1
(g2
g3
Ntp738
Rp739
(dp740
g7
I6140
sg8
(lp741
g10
(g14
S'\x82G\xe1z\x14\xae\xe1?'
p742
tp743
Rp744
ag10
(g14
S"\xe2\xa3p=\n'2@"
p745
tp746
Rp747
asg23
g24
(g25
(I0
tp748
g27
tp749
Rp750
(I1
(I1
I2
tp751
g14
I00
S'8\x99\x99\x99\x99\x99\xe1?@\x00\x00\x00\x00\x00\xe0\xbf'
p752
tp753
bsg33
I01
sbag1
(g2
g3
Ntp754
Rp755
(dp756
g7
I6141
sg8
(lp757
g10
(g14
S'\xf8[\x8f\xc2\xf5(\xe0?'
p758
tp759
Rp760
ag10
(g14
S'R\xe1z\x14\xaeg2@'
p761
tp762
Rp763
asg23
g24
(g25
(I0
tp764
g27
tp765
Rp766
(I1
(I1
I2
tp767
g14
I00
S'8\x99\x99\x99\x99\x99\xe1?P\xcd\xcc\xcc\xcc\xcc\xdc\xbf'
p768
tp769
bsg33
I01
sbag1
(g2
g3
Ntp770
Rp771
(dp772
g7
I6142
sg8
(lp773
g10
(g14
S'.\x99\x99\x99\x99\x99\xdd?'
p774
tp775
Rp776
ag10
(g14
S'\xa4\x99\x99\x99\x99\xa92@'
p777
tp778
Rp779
asg23
g24
(g25
(I0
tp780
g27
tp781
Rp782
(I1
(I1
I2
tp783
g14
I00
S'8\x99\x99\x99\x99\x99\xe1? \x9a\x99\x99\x99\x99\xd9\xbf'
p784
tp785
bsg33
I01
sbag1
(g2
g3
Ntp786
Rp787
(dp788
g7
I6143
sg8
(lp789
g10
(g14
S'\xbc23333\xdb?'
p790
tp791
Rp792
ag10
(g14
S'\xd6\xcc\xcc\xcc\xcc\xec2@'
p793
tp794
Rp795
asg23
g24
(g25
(I0
tp796
g27
tp797
Rp798
(I1
(I1
I2
tp799
g14
I00
S'8\x99\x99\x99\x99\x99\xe1?\xf0fffff\xd6\xbf'
p800
tp801
bsg33
I01
sbag1
(g2
g3
Ntp802
Rp803
(dp804
g7
I6144
sg8
(lp805
g10
(g14
S'\x9c\x84\xebQ\xb8\x1e\xd9?'
p806
tp807
Rp808
ag10
(g14
S'\xeaz\x14\xaeG13@'
p809
tp810
Rp811
asg23
g24
(g25
(I0
tp812
g27
tp813
Rp814
(I1
(I1
I2
tp815
g14
I00
S'8\x99\x99\x99\x99\x99\xe1?\xc033333\xd3\xbf'
p816
tp817
bsg33
I01
sbag1
(g2
g3
Ntp818
Rp819
(dp820
g7
I6238
sg8
(lp821
g10
(g14
S'\xdc\xd6\xa3p=\n\xe7?'
p822
tp823
Rp824
ag10
(g14
S'^\xb8\x1e\x85\xebQ1@'
p825
tp826
Rp827
asg23
g24
(g25
(I0
tp828
g27
tp829
Rp830
(I1
(I1
I2
tp831
g14
I00
S'\xd023333\xe3?p33333\xe3\xbf'
p832
tp833
bsg33
I01
sbag1
(g2
g3
Ntp834
Rp835
(dp836
g7
I6239
sg8
(lp837
g10
(g14
S'\x0033333\xe5?'
p838
tp839
Rp840
ag10
(g14
S'\x0c\x00\x00\x00\x00\x901@'
p841
tp842
Rp843
asg23
g24
(g25
(I0
tp844
g27
tp845
Rp846
(I1
(I1
I2
tp847
g14
I00
S'\xd023333\xe3?\xd8\x99\x99\x99\x99\x99\xe1\xbf'
p848
tp849
bsg33
I01
sbag1
(g2
g3
Ntp850
Rp851
(dp852
g7
I6240
sg8
(lp853
g10
(g14
S'N\xebQ\xb8\x1e\x85\xe3?'
p854
tp855
Rp856
ag10
(g14
S'\x9a\xc2\xf5(\\\xcf1@'
p857
tp858
Rp859
asg23
g24
(g25
(I0
tp860
g27
tp861
Rp862
(I1
(I1
I2
tp863
g14
I00
S'\xd023333\xe3?@\x00\x00\x00\x00\x00\xe0\xbf'
p864
tp865
bsg33
I01
sbag1
(g2
g3
Ntp866
Rp867
(dp868
g7
I6241
sg8
(lp869
g10
(g14
S'\xc4\xff\xff\xff\xff\xff\xe1?'
p870
tp871
Rp872
ag10
(g14
S'\x0b\x00\x00\x00\x00\x102@'
p873
tp874
Rp875
asg23
g24
(g25
(I0
tp876
g27
tp877
Rp878
(I1
(I1
I2
tp879
g14
I00
S'\xd023333\xe3?P\xcd\xcc\xcc\xcc\xcc\xdc\xbf'
p880
tp881
bsg33
I01
sbag1
(g2
g3
Ntp882
Rp883
(dp884
g7
I6242
sg8
(lp885
g10
(g14
S'bp=\n\xd7\xa3\xe0?'
p886
tp887
Rp888
ag10
(g14
S'\\\xb8\x1e\x85\xebQ2@'
p889
tp890
Rp891
asg23
g24
(g25
(I0
tp892
g27
tp893
Rp894
(I1
(I1
I2
tp895
g14
I00
S'\xd023333\xe3? \x9a\x99\x99\x99\x99\xd9\xbf'
p896
tp897
bsg33
I01
sbag1
(g2
g3
Ntp898
Rp899
(dp900
g7
I6243
sg8
(lp901
g10
(g14
S'Sz\x14\xaeG\xe1\xde?'
p902
tp903
Rp904
ag10
(g14
S'\x8f\xebQ\xb8\x1e\x952@'
p905
tp906
Rp907
asg23
g24
(g25
(I0
tp908
g27
tp909
Rp910
(I1
(I1
I2
tp911
g14
I00
S'\xd023333\xe3?\xf0fffff\xd6\xbf'
p912
tp913
bsg33
I01
sbag1
(g2
g3
Ntp914
Rp915
(dp916
g7
I6244
sg8
(lp917
g10
(g14
S'3\xcc\xcc\xcc\xcc\xcc\xdc?'
p918
tp919
Rp920
ag10
(g14
S'\xa3\x99\x99\x99\x99\xd92@'
p921
tp922
Rp923
asg23
g24
(g25
(I0
tp924
g27
tp925
Rp926
(I1
(I1
I2
tp927
g14
I00
S'\xd023333\xe3?\xc033333\xd3\xbf'
p928
tp929
bsg33
I01
sbag1
(g2
g3
Ntp930
Rp931
(dp932
g7
I6338
sg8
(lp933
g10
(g14
S'\xd0\xd6\xa3p=\n\xe9?'
p934
tp935
Rp936
ag10
(g14
S'\xf8Q\xb8\x1e\x85\xfb0@'
p937
tp938
Rp939
asg23
g24
(g25
(I0
tp940
g27
tp941
Rp942
(I1
(I1
I2
tp943
g14
I00
S'h\xcc\xcc\xcc\xcc\xcc\xe4?p33333\xe3\xbf'
p944
tp945
bsg33
I01
sbag1
(g2
g3
Ntp946
Rp947
(dp948
g7
I6339
sg8
(lp949
g10
(g14
S'\xf423333\xe7?'
p950
tp951
Rp952
ag10
(g14
S'\xa5\x99\x99\x99\x9991@'
p953
tp954
Rp955
asg23
g24
(g25
(I0
tp956
g27
tp957
Rp958
(I1
(I1
I2
tp959
g14
I00
S'h\xcc\xcc\xcc\xcc\xcc\xe4?\xd8\x99\x99\x99\x99\x99\xe1\xbf'
p960
tp961
bsg33
I01
sbag1
(g2
g3
Ntp962
Rp963
(dp964
g7
I6340
sg8
(lp965
g10
(g14
S'B\xebQ\xb8\x1e\x85\xe5?'
p966
tp967
Rp968
ag10
(g14
S'4\\\x8f\xc2\xf5x1@'
p969
tp970
Rp971
asg23
g24
(g25
(I0
tp972
g27
tp973
Rp974
(I1
(I1
I2
tp975
g14
I00
S'h\xcc\xcc\xcc\xcc\xcc\xe4?@\x00\x00\x00\x00\x00\xe0\xbf'
p976
tp977
bsg33
I01
sbag1
(g2
g3
Ntp978
Rp979
(dp980
g7
I6341
sg8
(lp981
g10
(g14
S'\xb8\xff\xff\xff\xff\xff\xe3?'
p982
tp983
Rp984
ag10
(g14
S'\xa4\x99\x99\x99\x99\xb91@'
p985
tp986
Rp987
asg23
g24
(g25
(I0
tp988
g27
tp989
Rp990
(I1
(I1
I2
tp991
g14
I00
S'h\xcc\xcc\xcc\xcc\xcc\xe4?P\xcd\xcc\xcc\xcc\xcc\xdc\xbf'
p992
tp993
bsg33
I01
sbag1
(g2
g3
Ntp994
Rp995
(dp996
g7
I6342
sg8
(lp997
g10
(g14
S'Vp=\n\xd7\xa3\xe2?'
p998
tp999
Rp1000
ag10
(g14
S'\xf6Q\xb8\x1e\x85\xfb1@'
p1001
tp1002
Rp1003
asg23
g24
(g25
(I0
tp1004
g27
tp1005
Rp1006
(I1
(I1
I2
tp1007
g14
I00
S'h\xcc\xcc\xcc\xcc\xcc\xe4? \x9a\x99\x99\x99\x99\xd9\xbf'
p1008
tp1009
bsg33
I01
sbag1
(g2
g3
Ntp1010
Rp1011
(dp1012
g7
I6343
sg8
(lp1013
g10
(g14
S'\x1e=\n\xd7\xa3p\xe1?'
p1014
tp1015
Rp1016
ag10
(g14
S'(\x85\xebQ\xb8>2@'
p1017
tp1018
Rp1019
asg23
g24
(g25
(I0
tp1020
g27
tp1021
Rp1022
(I1
(I1
I2
tp1023
g14
I00
S'h\xcc\xcc\xcc\xcc\xcc\xe4?\xf0fffff\xd6\xbf'
p1024
tp1025
bsg33
I01
sbag1
(g2
g3
Ntp1026
Rp1027
(dp1028
g7
I6437
sg8
(lp1029
g10
(g14
S'\xf023333\xed?'
p1030
tp1031
Rp1032
ag10
(g14
S'\xa6\x99\x99\x99\x99i0@'
p1033
tp1034
Rp1035
asg23
g24
(g25
(I0
tp1036
g27
tp1037
Rp1038
(I1
(I1
I2
tp1039
g14
I00
S'\x00fffff\xe6?\x08\xcd\xcc\xcc\xcc\xcc\xe4\xbf'
p1040
tp1041
bsg33
I01
sbag1
(g2
g3
Ntp1042
Rp1043
(dp1044
g7
I6438
sg8
(lp1045
g10
(g14
S'\xec23333\xeb?'
p1046
tp1047
Rp1048
ag10
(g14
S'rffff\xa60@'
p1049
tp1050
Rp1051
asg23
g24
(g25
(I0
tp1052
g27
tp1053
Rp1054
(I1
(I1
I2
tp1055
g14
I00
S'\x00fffff\xe6?p33333\xe3\xbf'
p1056
tp1057
bsg33
I01
sbag1
(g2
g3
Ntp1058
Rp1059
(dp1060
g7
I6439
sg8
(lp1061
g10
(g14
S'\x11\x8f\xc2\xf5(\\\xe9?'
p1062
tp1063
Rp1064
ag10
(g14
S' \xaeG\xe1z\xe40@'
p1065
tp1066
Rp1067
asg23
g24
(g25
(I0
tp1068
g27
tp1069
Rp1070
(I1
(I1
I2
tp1071
g14
I00
S'\x00fffff\xe6?\xd8\x99\x99\x99\x99\x99\xe1\xbf'
p1072
tp1073
bsg33
I01
sbag1
(g2
g3
Ntp1074
Rp1075
(dp1076
g7
I6440
sg8
(lp1077
g10
(g14
S'^G\xe1z\x14\xae\xe7?'
p1078
tp1079
Rp1080
ag10
(g14
S'\xafp=\n\xd7#1@'
p1081
tp1082
Rp1083
asg23
g24
(g25
(I0
tp1084
g27
tp1085
Rp1086
(I1
(I1
I2
tp1087
g14
I00
S'\x00fffff\xe6?@\x00\x00\x00\x00\x00\xe0\xbf'
p1088
tp1089
bsg33
I01
sbag1
(g2
g3
Ntp1090
Rp1091
(dp1092
g7
I6441
sg8
(lp1093
g10
(g14
S'\xd4[\x8f\xc2\xf5(\xe6?'
p1094
tp1095
Rp1096
ag10
(g14
S'\x1f\xaeG\xe1zd1@'
p1097
tp1098
Rp1099
asg23
g24
(g25
(I0
tp1100
g27
tp1101
Rp1102
(I1
(I1
I2
tp1103
g14
I00
S'\x00fffff\xe6?P\xcd\xcc\xcc\xcc\xcc\xdc\xbf'
p1104
tp1105
bsg33
I01
sbag1
(g2
g3
Ntp1106
Rp1107
(dp1108
g7
I6442
sg8
(lp1109
g10
(g14
S's\xcc\xcc\xcc\xcc\xcc\xe4?'
p1110
tp1111
Rp1112
ag10
(g14
S'qffff\xa61@'
p1113
tp1114
Rp1115
asg23
g24
(g25
(I0
tp1116
g27
tp1117
Rp1118
(I1
(I1
I2
tp1119
g14
I00
S'\x00fffff\xe6? \x9a\x99\x99\x99\x99\xd9\xbf'
p1120
tp1121
bsg33
I01
sbag1
(g2
g3
Ntp1122
Rp1123
(dp1124
g7
I6536
sg8
(lp1125
g10
(g14
S'\xb1\xa3p=\n\xd7\xf0?'
p1126
tp1127
Rp1128
ag10
(g14
S'.\xaeG\xe1z\xb4/@'
p1129
tp1130
Rp1131
asg23
g24
(g25
(I0
tp1132
g27
tp1133
Rp1134
(I1
(I1
I2
tp1135
g14
I00
S'\x98\xff\xff\xff\xff\xff\xe7?\xa0fffff\xe6\xbf'
p1136
tp1137
bsg33
I01
sbag1
(g2
g3
Ntp1138
Rp1139
(dp1140
g7
I6537
sg8
(lp1141
g10
(g14
S'6\xebQ\xb8\x1e\x85\xef?'
p1142
tp1143
Rp1144
ag10
(g14
S'\x02)\\\x8f\xc2\x150@'
p1145
tp1146
Rp1147
asg23
g24
(g25
(I0
tp1148
g27
tp1149
Rp1150
(I1
(I1
I2
tp1151
g14
I00
S'\x98\xff\xff\xff\xff\xff\xe7?\x08\xcd\xcc\xcc\xcc\xcc\xe4\xbf'
p1152
tp1153
bsg33
I01
sbag1
(g2
g3
Ntp1154
Rp1155
(dp1156
g7
I6538
sg8
(lp1157
g10
(g14
S'2\xebQ\xb8\x1e\x85\xed?'
p1158
tp1159
Rp1160
ag10
(g14
S'\xce\xf5(\\\x8fR0@'
p1161
tp1162
Rp1163
asg23
g24
(g25
(I0
tp1164
g27
tp1165
Rp1166
(I1
(I1
I2
tp1167
g14
I00
S'\x98\xff\xff\xff\xff\xff\xe7?p33333\xe3\xbf'
p1168
tp1169
bsg33
I01
sbag1
(g2
g3
Ntp1170
Rp1171
(dp1172
g7
I6539
sg8
(lp1173
g10
(g14
S'VG\xe1z\x14\xae\xeb?'
p1174
tp1175
Rp1176
ag10
(g14
S'|=\n\xd7\xa3\x900@'
p1177
tp1178
Rp1179
asg23
g24
(g25
(I0
tp1180
g27
tp1181
Rp1182
(I1
(I1
I2
tp1183
g14
I00
S'\x98\xff\xff\xff\xff\xff\xe7?\xd8\x99\x99\x99\x99\x99\xe1\xbf'
p1184
tp1185
bsg33
I01
sbag1
(g2
g3
Ntp1186
Rp1187
(dp1188
g7
I6540
sg8
(lp1189
g10
(g14
S'\xa4\xff\xff\xff\xff\xff\xe9?'
p1190
tp1191
Rp1192
ag10
(g14
S'\x0b\x00\x00\x00\x00\xd00@'
p1193
tp1194
Rp1195
asg23
g24
(g25
(I0
tp1196
g27
tp1197
Rp1198
(I1
(I1
I2
tp1199
g14
I00
S'\x98\xff\xff\xff\xff\xff\xe7?@\x00\x00\x00\x00\x00\xe0\xbf'
p1200
tp1201
bsg33
I01
sbag1
(g2
g3
Ntp1202
Rp1203
(dp1204
g7
I6541
sg8
(lp1205
g10
(g14
S'\x1a\x14\xaeG\xe1z\xe8?'
p1206
tp1207
Rp1208
ag10
(g14
S'{=\n\xd7\xa3\x101@'
p1209
tp1210
Rp1211
asg23
g24
(g25
(I0
tp1212
g27
tp1213
Rp1214
(I1
(I1
I2
tp1215
g14
I00
S'\x98\xff\xff\xff\xff\xff\xe7?P\xcd\xcc\xcc\xcc\xcc\xdc\xbf'
p1216
tp1217
bsg33
I01
sbag1
(g2
g3
Ntp1218
Rp1219
(dp1220
g7
I6635
sg8
(lp1221
g10
(g14
S'\x13\n\xd7\xa3p=\xf3?'
p1222
tp1223
Rp1224
ag10
(g14
S'\x95\x14\xaeG\xe1\x9a.@'
p1225
tp1226
Rp1227
asg23
g24
(g25
(I0
tp1228
g27
tp1229
Rp1230
(I1
(I1
I2
tp1231
g14
I00
S'0\x99\x99\x99\x99\x99\xe9?8\x00\x00\x00\x00\x00\xe8\xbf'
p1232
tp1233
bsg33
I01
sbag1
(g2
g3
Ntp1234
Rp1235
(dp1236
g7
I6636
sg8
(lp1237
g10
(g14
S'\xe8\xadG\xe1z\x14\xf2?'
p1238
tp1239
Rp1240
ag10
(g14
S'\xa9\xc2\xf5(\\\x0f/@'
p1241
tp1242
Rp1243
asg23
g24
(g25
(I0
tp1244
g27
tp1245
Rp1246
(I1
(I1
I2
tp1247
g14
I00
S'0\x99\x99\x99\x99\x99\xe9?\xa0fffff\xe6\xbf'
p1248
tp1249
bsg33
I01
sbag1
(g2
g3
Ntp1250
Rp1251
(dp1252
g7
I6637
sg8
(lp1253
g10
(g14
S'\xd2\xff\xff\xff\xff\xff\xf0?'
p1254
tp1255
Rp1256
ag10
(g14
S'\x7fffff\x86/@'
p1257
tp1258
Rp1259
asg23
g24
(g25
(I0
tp1260
g27
tp1261
Rp1262
(I1
(I1
I2
tp1263
g14
I00
S'0\x99\x99\x99\x99\x99\xe9?\x08\xcd\xcc\xcc\xcc\xcc\xe4\xbf'
p1264
tp1265
bsg33
I01
sbag1
(g2
g3
Ntp1266
Rp1267
(dp1268
g7
I6638
sg8
(lp1269
g10
(g14
S'\xa0\xff\xff\xff\xff\xff\xef?'
p1270
tp1271
Rp1272
ag10
(g14
S'\x0c\x00\x00\x00\x00\x000@'
p1273
tp1274
Rp1275
asg23
g24
(g25
(I0
tp1276
g27
tp1277
Rp1278
(I1
(I1
I2
tp1279
g14
I00
S'0\x99\x99\x99\x99\x99\xe9?p33333\xe3\xbf'
p1280
tp1281
bsg33
I01
sbag1
(g2
g3
Ntp1282
Rp1283
(dp1284
g7
I6639
sg8
(lp1285
g10
(g14
S'\xc4[\x8f\xc2\xf5(\xee?'
p1286
tp1287
Rp1288
ag10
(g14
S'\xbaG\xe1z\x14>0@'
p1289
tp1290
Rp1291
asg23
g24
(g25
(I0
tp1292
g27
tp1293
Rp1294
(I1
(I1
I2
tp1295
g14
I00
S'0\x99\x99\x99\x99\x99\xe9?\xd8\x99\x99\x99\x99\x99\xe1\xbf'
p1296
tp1297
bsg33
I01
sbag1
(g2
g3
Ntp1298
Rp1299
(dp1300
g7
I6640
sg8
(lp1301
g10
(g14
S'\x12\x14\xaeG\xe1z\xec?'
p1302
tp1303
Rp1304
ag10
(g14
S'H\n\xd7\xa3p}0@'
p1305
tp1306
Rp1307
asg23
g24
(g25
(I0
tp1308
g27
tp1309
Rp1310
(I1
(I1
I2
tp1311
g14
I00
S'0\x99\x99\x99\x99\x99\xe9?@\x00\x00\x00\x00\x00\xe0\xbf'
p1312
tp1313
bsg33
I01
sbag1
(g2
g3
Ntp1314
Rp1315
(dp1316
g7
I6641
sg8
(lp1317
g10
(g14
S'\x88(\\\x8f\xc2\xf5\xea?'
p1318
tp1319
Rp1320
ag10
(g14
S'\xb9G\xe1z\x14\xbe0@'
p1321
tp1322
Rp1323
asg23
g24
(g25
(I0
tp1324
g27
tp1325
Rp1326
(I1
(I1
I2
tp1327
g14
I00
S'0\x99\x99\x99\x99\x99\xe9?P\xcd\xcc\xcc\xcc\xcc\xdc\xbf'
p1328
tp1329
bsg33
I01
sbag1
(g2
g3
Ntp1330
Rp1331
(dp1332
g7
I6735
sg8
(lp1333
g10
(g14
S'^\xc2\xf5(\\\x8f\xf4?'
p1334
tp1335
Rp1336
ag10
(g14
S'\xd3\x1e\x85\xebQ\xf8-@'
p1337
tp1338
Rp1339
asg23
g24
(g25
(I0
tp1340
g27
tp1341
Rp1342
(I1
(I1
I2
tp1343
g14
I00
S'\xc823333\xeb?8\x00\x00\x00\x00\x00\xe8\xbf'
p1344
tp1345
bsg33
I01
sbag1
(g2
g3
Ntp1346
Rp1347
(dp1348
g7
I6736
sg8
(lp1349
g10
(g14
S'3fffff\xf3?'
p1350
tp1351
Rp1352
ag10
(g14
S'\xe7\xcc\xcc\xcc\xccl.@'
p1353
tp1354
Rp1355
asg23
g24
(g25
(I0
tp1356
g27
tp1357
Rp1358
(I1
(I1
I2
tp1359
g14
I00
S'\xc823333\xeb?\xa0fffff\xe6\xbf'
p1360
tp1361
bsg33
I01
sbag1
(g2
g3
Ntp1362
Rp1363
(dp1364
g7
I6737
sg8
(lp1365
g10
(g14
S'\x1d\xb8\x1e\x85\xebQ\xf2?'
p1366
tp1367
Rp1368
ag10
(g14
S'\xbdp=\n\xd7\xe3.@'
p1369
tp1370
Rp1371
asg23
g24
(g25
(I0
tp1372
g27
tp1373
Rp1374
(I1
(I1
I2
tp1375
g14
I00
S'\xc823333\xeb?\x08\xcd\xcc\xcc\xcc\xcc\xe4\xbf'
p1376
tp1377
bsg33
I01
sbag1
(g2
g3
Ntp1378
Rp1379
(dp1380
g7
I6738
sg8
(lp1381
g10
(g14
S'\x1b\xb8\x1e\x85\xebQ\xf1?'
p1382
tp1383
Rp1384
ag10
(g14
S'V\n\xd7\xa3p]/@'
p1385
tp1386
Rp1387
asg23
g24
(g25
(I0
tp1388
g27
tp1389
Rp1390
(I1
(I1
I2
tp1391
g14
I00
S'\xc823333\xeb?p33333\xe3\xbf'
p1392
tp1393
bsg33
I01
sbag1
(g2
g3
Ntp1394
Rp1395
(dp1396
g7
I6739
sg8
(lp1397
g10
(g14
S'-fffff\xf0?'
p1398
tp1399
Rp1400
ag10
(g14
S'\xb1\x99\x99\x99\x99\xd9/@'
p1401
tp1402
Rp1403
asg23
g24
(g25
(I0
tp1404
g27
tp1405
Rp1406
(I1
(I1
I2
tp1407
g14
I00
S'\xc823333\xeb?\xd8\x99\x99\x99\x99\x99\xe1\xbf'
p1408
tp1409
bsg33
I01
sbag1
(g2
g3
Ntp1410
Rp1411
(dp1412
g7
I6740
sg8
(lp1413
g10
(g14
S'\xa8\x84\xebQ\xb8\x1e\xef?'
p1414
tp1415
Rp1416
ag10
(g14
S'h\x8f\xc2\xf5(,0@'
p1417
tp1418
Rp1419
asg23
g24
(g25
(I0
tp1420
g27
tp1421
Rp1422
(I1
(I1
I2
tp1423
g14
I00
S'\xc823333\xeb?@\x00\x00\x00\x00\x00\xe0\xbf'
p1424
tp1425
bsg33
I01
sbag1
(g2
g3
Ntp1426
Rp1427
(dp1428
g7
I6834
sg8
(lp1429
g10
(g14
S'\xfd23333\xf7?'
p1430
tp1431
Rp1432
ag10
(g14
S'\x81ffff\xe6,@'
p1433
tp1434
Rp1435
asg23
g24
(g25
(I0
tp1436
g27
tp1437
Rp1438
(I1
(I1
I2
tp1439
g14
I00
S'`\xcc\xcc\xcc\xcc\xcc\xec?\xd0\x99\x99\x99\x99\x99\xe9\xbf'
p1440
tp1441
bsg33
I01
sbag1
(g2
g3
Ntp1442
Rp1443
(dp1444
g7
I6835
sg8
(lp1445
g10
(g14
S'\xbe(\\\x8f\xc2\xf5\xf5?'
p1446
tp1447
Rp1448
ag10
(g14
S'\xd2\x1e\x85\xebQX-@'
p1449
tp1450
Rp1451
asg23
g24
(g25
(I0
tp1452
g27
tp1453
Rp1454
(I1
(I1
I2
tp1455
g14
I00
S'`\xcc\xcc\xcc\xcc\xcc\xec?8\x00\x00\x00\x00\x00\xe8\xbf'
p1456
tp1457
bsg33
I01
sbag1
(g2
g3
Ntp1458
Rp1459
(dp1460
g7
I6836
sg8
(lp1461
g10
(g14
S'\x93\xcc\xcc\xcc\xcc\xcc\xf4?'
p1462
tp1463
Rp1464
ag10
(g14
S'\xe6\xcc\xcc\xcc\xcc\xcc-@'
p1465
tp1466
Rp1467
asg23
g24
(g25
(I0
tp1468
g27
tp1469
Rp1470
(I1
(I1
I2
tp1471
g14
I00
S'`\xcc\xcc\xcc\xcc\xcc\xec?\xa0fffff\xe6\xbf'
p1472
tp1473
bsg33
I01
sbag1
(g2
g3
Ntp1474
Rp1475
(dp1476
g7
I6837
sg8
(lp1477
g10
(g14
S'}\x1e\x85\xebQ\xb8\xf3?'
p1478
tp1479
Rp1480
ag10
(g14
S'\xbcp=\n\xd7C.@'
p1481
tp1482
Rp1483
asg23
g24
(g25
(I0
tp1484
g27
tp1485
Rp1486
(I1
(I1
I2
tp1487
g14
I00
S'`\xcc\xcc\xcc\xcc\xcc\xec?\x08\xcd\xcc\xcc\xcc\xcc\xe4\xbf'
p1488
tp1489
bsg33
I01
sbag1
(g2
g3
Ntp1490
Rp1491
(dp1492
g7
I6838
sg8
(lp1493
g10
(g14
S'{\x1e\x85\xebQ\xb8\xf2?'
p1494
tp1495
Rp1496
ag10
(g14
S'U\n\xd7\xa3p\xbd.@'
p1497
tp1498
Rp1499
asg23
g24
(g25
(I0
tp1500
g27
tp1501
Rp1502
(I1
(I1
I2
tp1503
g14
I00
S'`\xcc\xcc\xcc\xcc\xcc\xec?p33333\xe3\xbf'
p1504
tp1505
bsg33
I01
sbag1
(g2
g3
Ntp1506
Rp1507
(dp1508
g7
I6839
sg8
(lp1509
g10
(g14
S'\x8d\xcc\xcc\xcc\xcc\xcc\xf1?'
p1510
tp1511
Rp1512
ag10
(g14
S'\xb0\x99\x99\x99\x999/@'
p1513
tp1514
Rp1515
asg23
g24
(g25
(I0
tp1516
g27
tp1517
Rp1518
(I1
(I1
I2
tp1519
g14
I00
S'`\xcc\xcc\xcc\xcc\xcc\xec?\xd8\x99\x99\x99\x99\x99\xe1\xbf'
p1520
tp1521
bsg33
I01
sbag1
(g2
g3
Ntp1522
Rp1523
(dp1524
g7
I6933
sg8
(lp1525
g10
(g14
S'\xc4\xff\xff\xff\xff\xff\xf9?'
p1526
tp1527
Rp1528
ag10
(g14
S'\xb6\x99\x99\x99\x99\xd9+@'
p1529
tp1530
Rp1531
asg23
g24
(g25
(I0
tp1532
g27
tp1533
Rp1534
(I1
(I1
I2
tp1535
g14
I00
S'\xf8effff\xee?h33333\xeb\xbf'
p1536
tp1537
bsg33
I01
sbag1
(g2
g3
Ntp1538
Rp1539
(dp1540
g7
I6934
sg8
(lp1541
g10
(g14
S'qG\xe1z\x14\xae\xf8?'
p1542
tp1543
Rp1544
ag10
(g14
S'D\\\x8f\xc2\xf5H,@'
p1545
tp1546
Rp1547
asg23
g24
(g25
(I0
tp1548
g27
tp1549
Rp1550
(I1
(I1
I2
tp1551
g14
I00
S'\xf8effff\xee?\xd0\x99\x99\x99\x99\x99\xe9\xbf'
p1552
tp1553
bsg33
I01
sbag1
(g2
g3
Ntp1554
Rp1555
(dp1556
g7
I6935
sg8
(lp1557
g10
(g14
S'2=\n\xd7\xa3p\xf7?'
p1558
tp1559
Rp1560
ag10
(g14
S'\x95\x14\xaeG\xe1\xba,@'
p1561
tp1562
Rp1563
asg23
g24
(g25
(I0
tp1564
g27
tp1565
Rp1566
(I1
(I1
I2
tp1567
g14
I00
S'\xf8effff\xee?8\x00\x00\x00\x00\x00\xe8\xbf'
p1568
tp1569
bsg33
I01
sbag1
(g2
g3
Ntp1570
Rp1571
(dp1572
g7
I6936
sg8
(lp1573
g10
(g14
S'\x07\xe1z\x14\xaeG\xf6?'
p1574
tp1575
Rp1576
ag10
(g14
S'\xa9\xc2\xf5(\\/-@'
p1577
tp1578
Rp1579
asg23
g24
(g25
(I0
tp1580
g27
tp1581
Rp1582
(I1
(I1
I2
tp1583
g14
I00
S'\xf8effff\xee?\xa0fffff\xe6\xbf'
p1584
tp1585
bsg33
I01
sbag1
(g2
g3
Ntp1586
Rp1587
(dp1588
g7
I6937
sg8
(lp1589
g10
(g14
S'\xf123333\xf5?'
p1590
tp1591
Rp1592
ag10
(g14
S'\x7fffff\xa6-@'
p1593
tp1594
Rp1595
asg23
g24
(g25
(I0
tp1596
g27
tp1597
Rp1598
(I1
(I1
I2
tp1599
g14
I00
S'\xf8effff\xee?\x08\xcd\xcc\xcc\xcc\xcc\xe4\xbf'
p1600
tp1601
bsg33
I01
sbag1
(g2
g3
Ntp1602
Rp1603
(dp1604
g7
I6938
sg8
(lp1605
g10
(g14
S'\xef23333\xf4?'
p1606
tp1607
Rp1608
ag10
(g14
S'\x18\x00\x00\x00\x00 .@'
p1609
tp1610
Rp1611
asg23
g24
(g25
(I0
tp1612
g27
tp1613
Rp1614
(I1
(I1
I2
tp1615
g14
I00
S'\xf8effff\xee?p33333\xe3\xbf'
p1616
tp1617
bsg33
I01
sbag1
(g2
g3
Ntp1618
Rp1619
(dp1620
g7
I7032
sg8
(lp1621
g10
(g14
S'\xb4(\\\x8f\xc2\xf5\xfc?'
p1622
tp1623
Rp1624
ag10
(g14
S'n\xb8\x1e\x85\xeb\xd1*@'
p1625
tp1626
Rp1627
asg23
g24
(g25
(I0
tp1628
g27
tp1629
Rp1630
(I1
(I1
I2
tp1631
g14
I00
S'\x90\xff\xff\xff\xff\xff\xef?\x00\xcd\xcc\xcc\xcc\xcc\xec\xbf'
p1632
tp1633
bsg33
I01
sbag1
(g2
g3
Ntp1634
Rp1635
(dp1636
g7
I7033
sg8
(lp1637
g10
(g14
S'L\xc2\xf5(\\\x8f\xfb?'
p1638
tp1639
Rp1640
ag10
(g14
S':\x85\xebQ\xb8>+@'
p1641
tp1642
Rp1643
asg23
g24
(g25
(I0
tp1644
g27
tp1645
Rp1646
(I1
(I1
I2
tp1647
g14
I00
S'\x90\xff\xff\xff\xff\xff\xef?h33333\xeb\xbf'
p1648
tp1649
bsg33
I01
sbag1
(g2
g3
Ntp1650
Rp1651
(dp1652
g7
I7034
sg8
(lp1653
g10
(g14
S'\xf9\t\xd7\xa3p=\xfa?'
p1654
tp1655
Rp1656
ag10
(g14
S'\xc9G\xe1z\x14\xae+@'
p1657
tp1658
Rp1659
asg23
g24
(g25
(I0
tp1660
g27
tp1661
Rp1662
(I1
(I1
I2
tp1663
g14
I00
S'\x90\xff\xff\xff\xff\xff\xef?\xd0\x99\x99\x99\x99\x99\xe9\xbf'
p1664
tp1665
bsg33
I01
sbag1
(g2
g3
Ntp1666
Rp1667
(dp1668
g7
I7035
sg8
(lp1669
g10
(g14
S'\xba\xff\xff\xff\xff\xff\xf8?'
p1670
tp1671
Rp1672
ag10
(g14
S'\x1a\x00\x00\x00\x00 ,@'
p1673
tp1674
Rp1675
asg23
g24
(g25
(I0
tp1676
g27
tp1677
Rp1678
(I1
(I1
I2
tp1679
g14
I00
S'\x90\xff\xff\xff\xff\xff\xef?8\x00\x00\x00\x00\x00\xe8\xbf'
p1680
tp1681
bsg33
I01
sbag1
(g2
g3
Ntp1682
Rp1683
(dp1684
g7
I7036
sg8
(lp1685
g10
(g14
S'\x8f\xa3p=\n\xd7\xf7?'
p1686
tp1687
Rp1688
ag10
(g14
S'.\xaeG\xe1z\x94,@'
p1689
tp1690
Rp1691
asg23
g24
(g25
(I0
tp1692
g27
tp1693
Rp1694
(I1
(I1
I2
tp1695
g14
I00
S'\x90\xff\xff\xff\xff\xff\xef?\xa0fffff\xe6\xbf'
p1696
tp1697
bsg33
I01
sbag1
(g2
g3
Ntp1698
Rp1699
(dp1700
g7
I7037
sg8
(lp1701
g10
(g14
S'y\xf5(\\\x8f\xc2\xf6?'
p1702
tp1703
Rp1704
ag10
(g14
S'\x04R\xb8\x1e\x85\x0b-@'
p1705
tp1706
Rp1707
asg23
g24
(g25
(I0
tp1708
g27
tp1709
Rp1710
(I1
(I1
I2
tp1711
g14
I00
S'\x90\xff\xff\xff\xff\xff\xef?\x08\xcd\xcc\xcc\xcc\xcc\xe4\xbf'
p1712
tp1713
bsg33
I01
sbag1
(g2
g3
Ntp1714
Rp1715
(dp1716
g7
I7038
sg8
(lp1717
g10
(g14
S'w\xf5(\\\x8f\xc2\xf5?'
p1718
tp1719
Rp1720
ag10
(g14
S'\x9d\xebQ\xb8\x1e\x85-@'
p1721
tp1722
Rp1723
asg23
g24
(g25
(I0
tp1724
g27
tp1725
Rp1726
(I1
(I1
I2
tp1727
g14
I00
S'\x90\xff\xff\xff\xff\xff\xef?p33333\xe3\xbf'
p1728
tp1729
bsg33
I01
sbag1
(g2
g3
Ntp1730
Rp1731
(dp1732
g7
I7132
sg8
(lp1733
g10
(g14
S'Q\x99\x99\x99\x99\x99\xfe?'
p1734
tp1735
Rp1736
ag10
(g14
S'\xb6\x99\x99\x99\x999*@'
p1737
tp1738
Rp1739
asg23
g24
(g25
(I0
tp1740
g27
tp1741
Rp1742
(I1
(I1
I2
tp1743
g14
I00
S'\x94\xcc\xcc\xcc\xcc\xcc\xf0?\x00\xcd\xcc\xcc\xcc\xcc\xec\xbf'
p1744
tp1745
bsg33
I01
sbag1
(g2
g3
Ntp1746
Rp1747
(dp1748
g7
I7133
sg8
(lp1749
g10
(g14
S'\xe923333\xfd?'
p1750
tp1751
Rp1752
ag10
(g14
S'\x82ffff\xa6*@'
p1753
tp1754
Rp1755
asg23
g24
(g25
(I0
tp1756
g27
tp1757
Rp1758
(I1
(I1
I2
tp1759
g14
I00
S'\x94\xcc\xcc\xcc\xcc\xcc\xf0?h33333\xeb\xbf'
p1760
tp1761
bsg33
I01
sbag1
(g2
g3
Ntp1762
Rp1763
(dp1764
g7
I7134
sg8
(lp1765
g10
(g14
S'\x96z\x14\xaeG\xe1\xfb?'
p1766
tp1767
Rp1768
ag10
(g14
S'\x11)\\\x8f\xc2\x15+@'
p1769
tp1770
Rp1771
asg23
g24
(g25
(I0
tp1772
g27
tp1773
Rp1774
(I1
(I1
I2
tp1775
g14
I00
S'\x94\xcc\xcc\xcc\xcc\xcc\xf0?\xd0\x99\x99\x99\x99\x99\xe9\xbf'
p1776
tp1777
bsg33
I01
sbag1
(g2
g3
Ntp1778
Rp1779
(dp1780
g7
I7135
sg8
(lp1781
g10
(g14
S'Wp=\n\xd7\xa3\xfa?'
p1782
tp1783
Rp1784
ag10
(g14
S'b\xe1z\x14\xae\x87+@'
p1785
tp1786
Rp1787
asg23
g24
(g25
(I0
tp1788
g27
tp1789
Rp1790
(I1
(I1
I2
tp1791
g14
I00
S'\x94\xcc\xcc\xcc\xcc\xcc\xf0?8\x00\x00\x00\x00\x00\xe8\xbf'
p1792
tp1793
bsg33
I01
sbag1
(g2
g3
Ntp1794
Rp1795
(dp1796
g7
I7136
sg8
(lp1797
g10
(g14
S',\x14\xaeG\xe1z\xf9?'
p1798
tp1799
Rp1800
ag10
(g14
S'v\x8f\xc2\xf5(\xfc+@'
p1801
tp1802
Rp1803
asg23
g24
(g25
(I0
tp1804
g27
tp1805
Rp1806
(I1
(I1
I2
tp1807
g14
I00
S'\x94\xcc\xcc\xcc\xcc\xcc\xf0?\xa0fffff\xe6\xbf'
p1808
tp1809
bsg33
I01
sbag1
(g2
g3
Ntp1810
Rp1811
(dp1812
g7
I7137
sg8
(lp1813
g10
(g14
S'\x16fffff\xf8?'
p1814
tp1815
Rp1816
ag10
(g14
S'L3333s,@'
p1817
tp1818
Rp1819
asg23
g24
(g25
(I0
tp1820
g27
tp1821
Rp1822
(I1
(I1
I2
tp1823
g14
I00
S'\x94\xcc\xcc\xcc\xcc\xcc\xf0?\x08\xcd\xcc\xcc\xcc\xcc\xe4\xbf'
p1824
tp1825
bsg33
I01
sbag1
(g2
g3
Ntp1826
Rp1827
(dp1828
g7
I7231
sg8
(lp1829
g10
(g14
S'>ffff\xe6\x00@'
p1830
tp1831
Rp1832
ag10
(g14
S'\xb7\x99\x99\x99\x999)@'
p1833
tp1834
Rp1835
asg23
g24
(g25
(I0
tp1836
g27
tp1837
Rp1838
(I1
(I1
I2
tp1839
g14
I00
S'`\x99\x99\x99\x99\x99\xf1?\x98fffff\xee\xbf'
p1840
tp1841
bsg33
I01
sbag1
(g2
g3
Ntp1842
Rp1843
(dp1844
g7
I7232
sg8
(lp1845
g10
(g14
S'\x00\\\x8f\xc2\xf5(\x00@'
p1846
tp1847
Rp1848
ag10
(g14
S'\xc0p=\n\xd7\xa3)@'
p1849
tp1850
Rp1851
asg23
g24
(g25
(I0
tp1852
g27
tp1853
Rp1854
(I1
(I1
I2
tp1855
g14
I00
S'`\x99\x99\x99\x99\x99\xf1?\x00\xcd\xcc\xcc\xcc\xcc\xec\xbf'
p1856
tp1857
bsg33
I01
sbag1
(g2
g3
Ntp1858
Rp1859
(dp1860
g7
I7233
sg8
(lp1861
g10
(g14
S'\x99Q\xb8\x1e\x85\xeb\xfe?'
p1862
tp1863
Rp1864
ag10
(g14
S'\x8c=\n\xd7\xa3\x10*@'
p1865
tp1866
Rp1867
asg23
g24
(g25
(I0
tp1868
g27
tp1869
Rp1870
(I1
(I1
I2
tp1871
g14
I00
S'`\x99\x99\x99\x99\x99\xf1?h33333\xeb\xbf'
p1872
tp1873
bsg33
I01
sbag1
(g2
g3
Ntp1874
Rp1875
(dp1876
g7
I7234
sg8
(lp1877
g10
(g14
S'F\x99\x99\x99\x99\x99\xfd?'
p1878
tp1879
Rp1880
ag10
(g14
S'\x1b\x00\x00\x00\x00\x80*@'
p1881
tp1882
Rp1883
asg23
g24
(g25
(I0
tp1884
g27
tp1885
Rp1886
(I1
(I1
I2
tp1887
g14
I00
S'`\x99\x99\x99\x99\x99\xf1?\xd0\x99\x99\x99\x99\x99\xe9\xbf'
p1888
tp1889
bsg33
I01
sbag1
(g2
g3
Ntp1890
Rp1891
(dp1892
g7
I7235
sg8
(lp1893
g10
(g14
S'\x07\x8f\xc2\xf5(\\\xfc?'
p1894
tp1895
Rp1896
ag10
(g14
S'l\xb8\x1e\x85\xeb\xf1*@'
p1897
tp1898
Rp1899
asg23
g24
(g25
(I0
tp1900
g27
tp1901
Rp1902
(I1
(I1
I2
tp1903
g14
I00
S'`\x99\x99\x99\x99\x99\xf1?8\x00\x00\x00\x00\x00\xe8\xbf'
p1904
tp1905
bsg33
I01
sbag1
(g2
g3
Ntp1906
Rp1907
(dp1908
g7
I7236
sg8
(lp1909
g10
(g14
S'\xdc23333\xfb?'
p1910
tp1911
Rp1912
ag10
(g14
S'\x80fffff+@'
p1913
tp1914
Rp1915
asg23
g24
(g25
(I0
tp1916
g27
tp1917
Rp1918
(I1
(I1
I2
tp1919
g14
I00
S'`\x99\x99\x99\x99\x99\xf1?\xa0fffff\xe6\xbf'
p1920
tp1921
bsg33
I01
sbag1
(g2
g3
Ntp1922
Rp1923
(dp1924
g7
I7330
sg8
(lp1925
g10
(g14
S'\xea\xadG\xe1z\x94\x02@'
p1926
tp1927
Rp1928
ag10
(g14
S'<\x85\xebQ\xb8>(@'
p1929
tp1930
Rp1931
asg23
g24
(g25
(I0
tp1932
g27
tp1933
Rp1934
(I1
(I1
I2
tp1935
g14
I00
S',fffff\xf2?\x18\x00\x00\x00\x00\x00\xf0\xbf'
p1936
tp1937
bsg33
I01
sbag1
(g2
g3
Ntp1938
Rp1939
(dp1940
g7
I7331
sg8
(lp1941
g10
(g14
S'\xa2\xcc\xcc\xcc\xcc\xcc\x01@'
p1942
tp1943
Rp1944
ag10
(g14
S'\x83ffff\xa6(@'
p1945
tp1946
Rp1947
asg23
g24
(g25
(I0
tp1948
g27
tp1949
Rp1950
(I1
(I1
I2
tp1951
g14
I00
S',fffff\xf2?\x98fffff\xee\xbf'
p1952
tp1953
bsg33
I01
sbag1
(g2
g3
Ntp1954
Rp1955
(dp1956
g7
I7332
sg8
(lp1957
g10
(g14
S'd\xc2\xf5(\\\x0f\x01@'
p1958
tp1959
Rp1960
ag10
(g14
S'\x8c=\n\xd7\xa3\x10)@'
p1961
tp1962
Rp1963
asg23
g24
(g25
(I0
tp1964
g27
tp1965
Rp1966
(I1
(I1
I2
tp1967
g14
I00
S',fffff\xf2?\x00\xcd\xcc\xcc\xcc\xcc\xec\xbf'
p1968
tp1969
bsg33
I01
sbag1
(g2
g3
Ntp1970
Rp1971
(dp1972
g7
I7333
sg8
(lp1973
g10
(g14
S'0\x8f\xc2\xf5(\\\x00@'
p1974
tp1975
Rp1976
ag10
(g14
S'X\n\xd7\xa3p})@'
p1977
tp1978
Rp1979
asg23
g24
(g25
(I0
tp1980
g27
tp1981
Rp1982
(I1
(I1
I2
tp1983
g14
I00
S',fffff\xf2?h33333\xeb\xbf'
p1984
tp1985
bsg33
I01
sbag1
(g2
g3
Ntp1986
Rp1987
(dp1988
g7
I7334
sg8
(lp1989
g10
(g14
S'\x0cfffff\xff?'
p1990
tp1991
Rp1992
ag10
(g14
S'\xe7\xcc\xcc\xcc\xcc\xec)@'
p1993
tp1994
Rp1995
asg23
g24
(g25
(I0
tp1996
g27
tp1997
Rp1998
(I1
(I1
I2
tp1999
g14
I00
S',fffff\xf2?\xd0\x99\x99\x99\x99\x99\xe9\xbf'
p2000
tp2001
bsg33
I01
sbag1
(g2
g3
Ntp2002
Rp2003
(dp2004
g7
I7335
sg8
(lp2005
g10
(g14
S'\xcd[\x8f\xc2\xf5(\xfe?'
p2006
tp2007
Rp2008
ag10
(g14
S'8\x85\xebQ\xb8^*@'
p2009
tp2010
Rp2011
asg23
g24
(g25
(I0
tp2012
g27
tp2013
Rp2014
(I1
(I1
I2
tp2015
g14
I00
S',fffff\xf2?8\x00\x00\x00\x00\x00\xe8\xbf'
p2016
tp2017
bsg33
I01
sbag1
(g2
g3
Ntp2018
Rp2019
(dp2020
g7
I7429
sg8
(lp2021
g10
(g14
S'\xa8\xa3p=\nW\x04@'
p2022
tp2023
Rp2024
ag10
(g14
S"G\\\x8f\xc2\xf5H'@"
p2025
tp2026
Rp2027
asg23
g24
(g25
(I0
tp2028
g27
tp2029
Rp2030
(I1
(I1
I2
tp2031
g14
I00
S'\xf823333\xf3?\xe4\xcc\xcc\xcc\xcc\xcc\xf0\xbf'
p2032
tp2033
bsg33
I01
sbag1
(g2
g3
Ntp2034
Rp2035
(dp2036
g7
I7430
sg8
(lp2037
g10
(g14
S'V\xebQ\xb8\x1e\x85\x03@'
p2038
tp2039
Rp2040
ag10
(g14
S"\xccG\xe1z\x14\xae'@"
p2041
tp2042
Rp2043
asg23
g24
(g25
(I0
tp2044
g27
tp2045
Rp2046
(I1
(I1
I2
tp2047
g14
I00
S'\xf823333\xf3?\x18\x00\x00\x00\x00\x00\xf0\xbf'
p2048
tp2049
bsg33
I01
sbag1
(g2
g3
Ntp2050
Rp2051
(dp2052
g7
I7431
sg8
(lp2053
g10
(g14
S'\x0e\n\xd7\xa3p\xbd\x02@'
p2054
tp2055
Rp2056
ag10
(g14
S'\x12)\\\x8f\xc2\x15(@'
p2057
tp2058
Rp2059
asg23
g24
(g25
(I0
tp2060
g27
tp2061
Rp2062
(I1
(I1
I2
tp2063
g14
I00
S'\xf823333\xf3?\x98fffff\xee\xbf'
p2064
tp2065
bsg33
I01
sbag1
(g2
g3
Ntp2066
Rp2067
(dp2068
g7
I7432
sg8
(lp2069
g10
(g14
S'\xd0\xff\xff\xff\xff\xff\x01@'
p2070
tp2071
Rp2072
ag10
(g14
S'\x1c\x00\x00\x00\x00\x80(@'
p2073
tp2074
Rp2075
asg23
g24
(g25
(I0
tp2076
g27
tp2077
Rp2078
(I1
(I1
I2
tp2079
g14
I00
S'\xf823333\xf3?\x00\xcd\xcc\xcc\xcc\xcc\xec\xbf'
p2080
tp2081
bsg33
I01
sbag1
(g2
g3
Ntp2082
Rp2083
(dp2084
g7
I7433
sg8
(lp2085
g10
(g14
S'\x9c\xcc\xcc\xcc\xccL\x01@'
p2086
tp2087
Rp2088
ag10
(g14
S'\xe8\xcc\xcc\xcc\xcc\xec(@'
p2089
tp2090
Rp2091
asg23
g24
(g25
(I0
tp2092
g27
tp2093
Rp2094
(I1
(I1
I2
tp2095
g14
I00
S'\xf823333\xf3?h33333\xeb\xbf'
p2096
tp2097
bsg33
I01
sbag1
(g2
g3
Ntp2098
Rp2099
(dp2100
g7
I7434
sg8
(lp2101
g10
(g14
S'rp=\n\xd7\xa3\x00@'
p2102
tp2103
Rp2104
ag10
(g14
S'v\x8f\xc2\xf5(\\)@'
p2105
tp2106
Rp2107
asg23
g24
(g25
(I0
tp2108
g27
tp2109
Rp2110
(I1
(I1
I2
tp2111
g14
I00
S'\xf823333\xf3?\xd0\x99\x99\x99\x99\x99\xe9\xbf'
p2112
tp2113
bsg33
I01
sbag1
(g2
g3
Ntp2114
Rp2115
(dp2116
g7
I7435
sg8
(lp2117
g10
(g14
S'S\xebQ\xb8\x1e\x05\x00@'
p2118
tp2119
Rp2120
ag10
(g14
S'\xc8G\xe1z\x14\xce)@'
p2121
tp2122
Rp2123
asg23
g24
(g25
(I0
tp2124
g27
tp2125
Rp2126
(I1
(I1
I2
tp2127
g14
I00
S'\xf823333\xf3?8\x00\x00\x00\x00\x00\xe8\xbf'
p2128
tp2129
bsg33
I01
sbag1
(g2
g3
Ntp2130
Rp2131
(dp2132
g7
I7529
sg8
(lp2133
g10
(g14
S' \xb8\x1e\x85\xebQ\x05@'
p2134
tp2135
Rp2136
ag10
(g14
S'\x98\x14\xaeG\xe1\xba&@'
p2137
tp2138
Rp2139
asg23
g24
(g25
(I0
tp2140
g27
tp2141
Rp2142
(I1
(I1
I2
tp2143
g14
I00
S'\xc4\xff\xff\xff\xff\xff\xf3?\xe4\xcc\xcc\xcc\xcc\xcc\xf0\xbf'
p2144
tp2145
bsg33
I01
sbag1
(g2
g3
Ntp2146
Rp2147
(dp2148
g7
I7530
sg8
(lp2149
g10
(g14
S'\xcd\xff\xff\xff\xff\x7f\x04@'
p2150
tp2151
Rp2152
ag10
(g14
S"\x1d\x00\x00\x00\x00 '@"
p2153
tp2154
Rp2155
asg23
g24
(g25
(I0
tp2156
g27
tp2157
Rp2158
(I1
(I1
I2
tp2159
g14
I00
S'\xc4\xff\xff\xff\xff\xff\xf3?\x18\x00\x00\x00\x00\x00\xf0\xbf'
p2160
tp2161
bsg33
I01
sbag1
(g2
g3
Ntp2162
Rp2163
(dp2164
g7
I7531
sg8
(lp2165
g10
(g14
S'\x85\x1e\x85\xebQ\xb8\x03@'
p2166
tp2167
Rp2168
ag10
(g14
S"d\xe1z\x14\xae\x87'@"
p2169
tp2170
Rp2171
asg23
g24
(g25
(I0
tp2172
g27
tp2173
Rp2174
(I1
(I1
I2
tp2175
g14
I00
S'\xc4\xff\xff\xff\xff\xff\xf3?\x98fffff\xee\xbf'
p2176
tp2177
bsg33
I01
sbag1
(g2
g3
Ntp2178
Rp2179
(dp2180
g7
I7532
sg8
(lp2181
g10
(g14
S'G\x14\xaeG\xe1\xfa\x02@'
p2182
tp2183
Rp2184
ag10
(g14
S"n\xb8\x1e\x85\xeb\xf1'@"
p2185
tp2186
Rp2187
asg23
g24
(g25
(I0
tp2188
g27
tp2189
Rp2190
(I1
(I1
I2
tp2191
g14
I00
S'\xc4\xff\xff\xff\xff\xff\xf3?\x00\xcd\xcc\xcc\xcc\xcc\xec\xbf'
p2192
tp2193
bsg33
I01
sbag1
(g2
g3
Ntp2194
Rp2195
(dp2196
g7
I7533
sg8
(lp2197
g10
(g14
S'\x13\xe1z\x14\xaeG\x02@'
p2198
tp2199
Rp2200
ag10
(g14
S':\x85\xebQ\xb8^(@'
p2201
tp2202
Rp2203
asg23
g24
(g25
(I0
tp2204
g27
tp2205
Rp2206
(I1
(I1
I2
tp2207
g14
I00
S'\xc4\xff\xff\xff\xff\xff\xf3?h33333\xeb\xbf'
p2208
tp2209
bsg33
I01
sbag1
(g2
g3
Ntp2210
Rp2211
(dp2212
g7
I7534
sg8
(lp2213
g10
(g14
S'\xea\x84\xebQ\xb8\x9e\x01@'
p2214
tp2215
Rp2216
ag10
(g14
S'\xc8G\xe1z\x14\xce(@'
p2217
tp2218
Rp2219
asg23
g24
(g25
(I0
tp2220
g27
tp2221
Rp2222
(I1
(I1
I2
tp2223
g14
I00
S'\xc4\xff\xff\xff\xff\xff\xf3?\xd0\x99\x99\x99\x99\x99\xe9\xbf'
p2224
tp2225
bsg33
I01
sbag1
(g2
g3
Ntp2226
Rp2227
(dp2228
g7
I7628
sg8
(lp2229
g10
(g14
S'\xfc23333\x07@'
p2230
tp2231
Rp2232
ag10
(g14
S'\xeb\xcc\xcc\xcc\xcc\xcc%@'
p2233
tp2234
Rp2235
asg23
g24
(g25
(I0
tp2236
g27
tp2237
Rp2238
(I1
(I1
I2
tp2239
g14
I00
S'\x90\xcc\xcc\xcc\xcc\xcc\xf4?\xb0\x99\x99\x99\x99\x99\xf1\xbf'
p2240
tp2241
bsg33
I01
sbag1
(g2
g3
Ntp2242
Rp2243
(dp2244
g7
I7629
sg8
(lp2245
g10
(g14
S'\xa0\xa3p=\nW\x06@'
p2246
tp2247
Rp2248
ag10
(g14
S'\xad\xc2\xf5(\\/&@'
p2249
tp2250
Rp2251
asg23
g24
(g25
(I0
tp2252
g27
tp2253
Rp2254
(I1
(I1
I2
tp2255
g14
I00
S'\x90\xcc\xcc\xcc\xcc\xcc\xf4?\xe4\xcc\xcc\xcc\xcc\xcc\xf0\xbf'
p2256
tp2257
bsg33
I01
sbag1
(g2
g3
Ntp2258
Rp2259
(dp2260
g7
I7630
sg8
(lp2261
g10
(g14
S'N\xebQ\xb8\x1e\x85\x05@'
p2262
tp2263
Rp2264
ag10
(g14
S'2\xaeG\xe1z\x94&@'
p2265
tp2266
Rp2267
asg23
g24
(g25
(I0
tp2268
g27
tp2269
Rp2270
(I1
(I1
I2
tp2271
g14
I00
S'\x90\xcc\xcc\xcc\xcc\xcc\xf4?\x18\x00\x00\x00\x00\x00\xf0\xbf'
p2272
tp2273
bsg33
I01
sbag1
(g2
g3
Ntp2274
Rp2275
(dp2276
g7
I7631
sg8
(lp2277
g10
(g14
S'\x06\n\xd7\xa3p\xbd\x04@'
p2278
tp2279
Rp2280
ag10
(g14
S'x\x8f\xc2\xf5(\xfc&@'
p2281
tp2282
Rp2283
asg23
g24
(g25
(I0
tp2284
g27
tp2285
Rp2286
(I1
(I1
I2
tp2287
g14
I00
S'\x90\xcc\xcc\xcc\xcc\xcc\xf4?\x98fffff\xee\xbf'
p2288
tp2289
bsg33
I01
sbag1
(g2
g3
Ntp2290
Rp2291
(dp2292
g7
I7632
sg8
(lp2293
g10
(g14
S'\xc8\xff\xff\xff\xff\xff\x03@'
p2294
tp2295
Rp2296
ag10
(g14
S"\x82fffff'@"
p2297
tp2298
Rp2299
asg23
g24
(g25
(I0
tp2300
g27
tp2301
Rp2302
(I1
(I1
I2
tp2303
g14
I00
S'\x90\xcc\xcc\xcc\xcc\xcc\xf4?\x00\xcd\xcc\xcc\xcc\xcc\xec\xbf'
p2304
tp2305
bsg33
I01
sbag1
(g2
g3
Ntp2306
Rp2307
(dp2308
g7
I7633
sg8
(lp2309
g10
(g14
S'\x94\xcc\xcc\xcc\xccL\x03@'
p2310
tp2311
Rp2312
ag10
(g14
S"N3333\xd3'@"
p2313
tp2314
Rp2315
asg23
g24
(g25
(I0
tp2316
g27
tp2317
Rp2318
(I1
(I1
I2
tp2319
g14
I00
S'\x90\xcc\xcc\xcc\xcc\xcc\xf4?h33333\xeb\xbf'
p2320
tp2321
bsg33
I01
sbag1
(g2
g3
Ntp2322
Rp2323
(dp2324
g7
I7727
sg8
(lp2325
g10
(g14
S'\xef[\x8f\xc2\xf5(\t@'
p2326
tp2327
Rp2328
ag10
(g14
S'\xc3p=\n\xd7\xe3$@'
p2329
tp2330
Rp2331
asg23
g24
(g25
(I0
tp2332
g27
tp2333
Rp2334
(I1
(I1
I2
tp2335
g14
I00
S'\\\x99\x99\x99\x99\x99\xf5?|fffff\xf2\xbf'
p2336
tp2337
bsg33
I01
sbag1
(g2
g3
Ntp2338
Rp2339
(dp2340
g7
I7728
sg8
(lp2341
g10
(g14
S'\x88\xf5(\\\x8fB\x08@'
p2342
tp2343
Rp2344
ag10
(g14
S'\xc2p=\n\xd7C%@'
p2345
tp2346
Rp2347
asg23
g24
(g25
(I0
tp2348
g27
tp2349
Rp2350
(I1
(I1
I2
tp2351
g14
I00
S'\\\x99\x99\x99\x99\x99\xf5?\xb0\x99\x99\x99\x99\x99\xf1\xbf'
p2352
tp2353
bsg33
I01
sbag1
(g2
g3
Ntp2354
Rp2355
(dp2356
g7
I7729
sg8
(lp2357
g10
(g14
S',fffff\x07@'
p2358
tp2359
Rp2360
ag10
(g14
S'\x84ffff\xa6%@'
p2361
tp2362
Rp2363
asg23
g24
(g25
(I0
tp2364
g27
tp2365
Rp2366
(I1
(I1
I2
tp2367
g14
I00
S'\\\x99\x99\x99\x99\x99\xf5?\xe4\xcc\xcc\xcc\xcc\xcc\xf0\xbf'
p2368
tp2369
bsg33
I01
sbag1
(g2
g3
Ntp2370
Rp2371
(dp2372
g7
I7730
sg8
(lp2373
g10
(g14
S'\xda\xadG\xe1z\x94\x06@'
p2374
tp2375
Rp2376
ag10
(g14
S'\x08R\xb8\x1e\x85\x0b&@'
p2377
tp2378
Rp2379
asg23
g24
(g25
(I0
tp2380
g27
tp2381
Rp2382
(I1
(I1
I2
tp2383
g14
I00
S'\\\x99\x99\x99\x99\x99\xf5?\x18\x00\x00\x00\x00\x00\xf0\xbf'
p2384
tp2385
bsg33
I01
sbag1
(g2
g3
Ntp2386
Rp2387
(dp2388
g7
I7731
sg8
(lp2389
g10
(g14
S'\x92\xcc\xcc\xcc\xcc\xcc\x05@'
p2390
tp2391
Rp2392
ag10
(g14
S'P3333s&@'
p2393
tp2394
Rp2395
asg23
g24
(g25
(I0
tp2396
g27
tp2397
Rp2398
(I1
(I1
I2
tp2399
g14
I00
S'\\\x99\x99\x99\x99\x99\xf5?\x98fffff\xee\xbf'
p2400
tp2401
bsg33
I01
sbag1
(g2
g3
Ntp2402
Rp2403
(dp2404
g7
I7732
sg8
(lp2405
g10
(g14
S'T\xc2\xf5(\\\x0f\x05@'
p2406
tp2407
Rp2408
ag10
(g14
S'Y\n\xd7\xa3p\xdd&@'
p2409
tp2410
Rp2411
asg23
g24
(g25
(I0
tp2412
g27
tp2413
Rp2414
(I1
(I1
I2
tp2415
g14
I00
S'\\\x99\x99\x99\x99\x99\xf5?\x00\xcd\xcc\xcc\xcc\xcc\xec\xbf'
p2416
tp2417
bsg33
I01
sbag1
(g2
g3
Ntp2418
Rp2419
(dp2420
g7
I7826
sg8
(lp2421
g10
(g14
S'\xf423333\x0b@'
p2422
tp2423
Rp2424
ag10
(g14
S'\x1f\x00\x00\x00\x00\x00$@'
p2425
tp2426
Rp2427
asg23
g24
(g25
(I0
tp2428
g27
tp2429
Rp2430
(I1
(I1
I2
tp2431
g14
I00
S'(fffff\xf6?H33333\xf3\xbf'
p2432
tp2433
bsg33
I01
sbag1
(g2
g3
Ntp2434
Rp2435
(dp2436
g7
I7827
sg8
(lp2437
g10
(g14
S'\x84\xf5(\\\x8fB\n@'
p2438
tp2439
Rp2440
ag10
(g14
S'\\\n\xd7\xa3p]$@'
p2441
tp2442
Rp2443
asg23
g24
(g25
(I0
tp2444
g27
tp2445
Rp2446
(I1
(I1
I2
tp2447
g14
I00
S'(fffff\xf6?|fffff\xf2\xbf'
p2448
tp2449
bsg33
I01
sbag1
(g2
g3
Ntp2450
Rp2451
(dp2452
g7
I7828
sg8
(lp2453
g10
(g14
S'\x1d\x8f\xc2\xf5(\\\t@'
p2454
tp2455
Rp2456
ag10
(g14
S'[\n\xd7\xa3p\xbd$@'
p2457
tp2458
Rp2459
asg23
g24
(g25
(I0
tp2460
g27
tp2461
Rp2462
(I1
(I1
I2
tp2463
g14
I00
S'(fffff\xf6?\xb0\x99\x99\x99\x99\x99\xf1\xbf'
p2464
tp2465
bsg33
I01
sbag1
(g2
g3
Ntp2466
Rp2467
(dp2468
g7
I7829
sg8
(lp2469
g10
(g14
S'\xc1\xff\xff\xff\xff\x7f\x08@'
p2470
tp2471
Rp2472
ag10
(g14
S'\x1d\x00\x00\x00\x00 %@'
p2473
tp2474
Rp2475
asg23
g24
(g25
(I0
tp2476
g27
tp2477
Rp2478
(I1
(I1
I2
tp2479
g14
I00
S'(fffff\xf6?\xe4\xcc\xcc\xcc\xcc\xcc\xf0\xbf'
p2480
tp2481
bsg33
I01
sbag1
(g2
g3
Ntp2482
Rp2483
(dp2484
g7
I7830
sg8
(lp2485
g10
(g14
S'nG\xe1z\x14\xae\x07@'
p2486
tp2487
Rp2488
ag10
(g14
S'\xa2\xebQ\xb8\x1e\x85%@'
p2489
tp2490
Rp2491
asg23
g24
(g25
(I0
tp2492
g27
tp2493
Rp2494
(I1
(I1
I2
tp2495
g14
I00
S'(fffff\xf6?\x18\x00\x00\x00\x00\x00\xf0\xbf'
p2496
tp2497
bsg33
I01
sbag1
(g2
g3
Ntp2498
Rp2499
(dp2500
g7
I7831
sg8
(lp2501
g10
(g14
S'&ffff\xe6\x06@'
p2502
tp2503
Rp2504
ag10
(g14
S'\xe8\xcc\xcc\xcc\xcc\xec%@'
p2505
tp2506
Rp2507
asg23
g24
(g25
(I0
tp2508
g27
tp2509
Rp2510
(I1
(I1
I2
tp2511
g14
I00
S'(fffff\xf6?\x98fffff\xee\xbf'
p2512
tp2513
bsg33
I01
sbag1
(g2
g3
Ntp2514
Rp2515
(dp2516
g7
I7832
sg8
(lp2517
g10
(g14
S'\xe8[\x8f\xc2\xf5(\x06@'
p2518
tp2519
Rp2520
ag10
(g14
S'\xf2\xa3p=\nW&@'
p2521
tp2522
Rp2523
asg23
g24
(g25
(I0
tp2524
g27
tp2525
Rp2526
(I1
(I1
I2
tp2527
g14
I00
S'(fffff\xf6?\x00\xcd\xcc\xcc\xcc\xcc\xec\xbf'
p2528
tp2529
bsg33
I01
sbag1
(g2
g3
Ntp2530
Rp2531
(dp2532
g7
I7926
sg8
(lp2533
g10
(g14
S'\x94\xa3p=\nW\x0c@'
p2534
tp2535
Rp2536
ag10
(g14
S'{\x8f\xc2\xf5(|#@'
p2537
tp2538
Rp2539
asg23
g24
(g25
(I0
tp2540
g27
tp2541
Rp2542
(I1
(I1
I2
tp2543
g14
I00
S'\xf423333\xf7?H33333\xf3\xbf'
p2544
tp2545
bsg33
I01
sbag1
(g2
g3
Ntp2546
Rp2547
(dp2548
g7
I7927
sg8
(lp2549
g10
(g14
S'$fffff\x0b@'
p2550
tp2551
Rp2552
ag10
(g14
S'\xb8\x99\x99\x99\x99\xd9#@'
p2553
tp2554
Rp2555
asg23
g24
(g25
(I0
tp2556
g27
tp2557
Rp2558
(I1
(I1
I2
tp2559
g14
I00
S'\xf423333\xf7?|fffff\xf2\xbf'
p2560
tp2561
bsg33
I01
sbag1
(g2
g3
Ntp2562
Rp2563
(dp2564
g7
I7928
sg8
(lp2565
g10
(g14
S'\xbc\xff\xff\xff\xff\x7f\n@'
p2566
tp2567
Rp2568
ag10
(g14
S'\xb7\x99\x99\x99\x999$@'
p2569
tp2570
Rp2571
asg23
g24
(g25
(I0
tp2572
g27
tp2573
Rp2574
(I1
(I1
I2
tp2575
g14
I00
S'\xf423333\xf7?\xb0\x99\x99\x99\x99\x99\xf1\xbf'
p2576
tp2577
bsg33
I01
sbag1
(g2
g3
Ntp2578
Rp2579
(dp2580
g7
I7929
sg8
(lp2581
g10
(g14
S'`p=\n\xd7\xa3\t@'
p2582
tp2583
Rp2584
ag10
(g14
S'y\x8f\xc2\xf5(\x9c$@'
p2585
tp2586
Rp2587
asg23
g24
(g25
(I0
tp2588
g27
tp2589
Rp2590
(I1
(I1
I2
tp2591
g14
I00
S'\xf423333\xf7?\xe4\xcc\xcc\xcc\xcc\xcc\xf0\xbf'
p2592
tp2593
bsg33
I01
sbag1
(g2
g3
Ntp2594
Rp2595
(dp2596
g7
I7930
sg8
(lp2597
g10
(g14
S'\x0e\xb8\x1e\x85\xeb\xd1\x08@'
p2598
tp2599
Rp2600
ag10
(g14
S'\xfez\x14\xaeG\x01%@'
p2601
tp2602
Rp2603
asg23
g24
(g25
(I0
tp2604
g27
tp2605
Rp2606
(I1
(I1
I2
tp2607
g14
I00
S'\xf423333\xf7?\x18\x00\x00\x00\x00\x00\xf0\xbf'
p2608
tp2609
bsg33
I01
sbag1
(g2
g3
Ntp2610
Rp2611
(dp2612
g7
I7931
sg8
(lp2613
g10
(g14
S'\xc6\xd6\xa3p=\n\x08@'
p2614
tp2615
Rp2616
ag10
(g14
S'D\\\x8f\xc2\xf5h%@'
p2617
tp2618
Rp2619
asg23
g24
(g25
(I0
tp2620
g27
tp2621
Rp2622
(I1
(I1
I2
tp2623
g14
I00
S'\xf423333\xf7?\x98fffff\xee\xbf'
p2624
tp2625
bsg33
I01
sbag1
(g2
g3
Ntp2626
Rp2627
(dp2628
g7
I8025
sg8
(lp2629
g10
(g14
S'\xb9\xff\xff\xff\xff\x7f\x0e@'
p2630
tp2631
Rp2632
ag10
(g14
S'\x1f\x00\x00\x00\x00\xa0"@'
p2633
tp2634
Rp2635
asg23
g24
(g25
(I0
tp2636
g27
tp2637
Rp2638
(I1
(I1
I2
tp2639
g14
I00
S'\xc0\xff\xff\xff\xff\xff\xf7?\x14\x00\x00\x00\x00\x00\xf4\xbf'
p2640
tp2641
bsg33
I01
sbag1
(g2
g3
Ntp2642
Rp2643
(dp2644
g7
I8026
sg8
(lp2645
g10
(g14
S'>\xebQ\xb8\x1e\x85\r@'
p2646
tp2647
Rp2648
ag10
(g14
S'\x9a\x14\xaeG\xe1\xfa"@'
p2649
tp2650
Rp2651
asg23
g24
(g25
(I0
tp2652
g27
tp2653
Rp2654
(I1
(I1
I2
tp2655
g14
I00
S'\xc0\xff\xff\xff\xff\xff\xf7?H33333\xf3\xbf'
p2656
tp2657
bsg33
I01
sbag1
(g2
g3
Ntp2658
Rp2659
(dp2660
g7
I8027
sg8
(lp2661
g10
(g14
S'\xce\xadG\xe1z\x94\x0c@'
p2662
tp2663
Rp2664
ag10
(g14
S'\xd6\x1e\x85\xebQX#@'
p2665
tp2666
Rp2667
asg23
g24
(g25
(I0
tp2668
g27
tp2669
Rp2670
(I1
(I1
I2
tp2671
g14
I00
S'\xc0\xff\xff\xff\xff\xff\xf7?|fffff\xf2\xbf'
p2672
tp2673
bsg33
I01
sbag1
(g2
g3
Ntp2674
Rp2675
(dp2676
g7
I8028
sg8
(lp2677
g10
(g14
S'fG\xe1z\x14\xae\x0b@'
p2678
tp2679
Rp2680
ag10
(g14
S'\xd6\x1e\x85\xebQ\xb8#@'
p2681
tp2682
Rp2683
asg23
g24
(g25
(I0
tp2684
g27
tp2685
Rp2686
(I1
(I1
I2
tp2687
g14
I00
S'\xc0\xff\xff\xff\xff\xff\xf7?\xb0\x99\x99\x99\x99\x99\xf1\xbf'
p2688
tp2689
bsg33
I01
sbag1
(g2
g3
Ntp2690
Rp2691
(dp2692
g7
I8029
sg8
(lp2693
g10
(g14
S'\n\xb8\x1e\x85\xeb\xd1\n@'
p2694
tp2695
Rp2696
ag10
(g14
S'\x98\x14\xaeG\xe1\x1a$@'
p2697
tp2698
Rp2699
asg23
g24
(g25
(I0
tp2700
g27
tp2701
Rp2702
(I1
(I1
I2
tp2703
g14
I00
S'\xc0\xff\xff\xff\xff\xff\xf7?\xe4\xcc\xcc\xcc\xcc\xcc\xf0\xbf'
p2704
tp2705
bsg33
I01
sbag1
(g2
g3
Ntp2706
Rp2707
(dp2708
g7
I8030
sg8
(lp2709
g10
(g14
S'\xb8\xff\xff\xff\xff\xff\t@'
p2710
tp2711
Rp2712
ag10
(g14
S'\x1c\x00\x00\x00\x00\x80$@'
p2713
tp2714
Rp2715
asg23
g24
(g25
(I0
tp2716
g27
tp2717
Rp2718
(I1
(I1
I2
tp2719
g14
I00
S'\xc0\xff\xff\xff\xff\xff\xf7?\x18\x00\x00\x00\x00\x00\xf0\xbf'
p2720
tp2721
bsg33
I01
sbag1
(g2
g3
Ntp2722
Rp2723
(dp2724
g7
I8124
sg8
(lp2725
g10
(g14
S'\xf9\x84\xebQ\xb8^\x10@'
p2726
tp2727
Rp2728
ag10
(g14
S'H\\\x8f\xc2\xf5\xc8!@'
p2729
tp2730
Rp2731
asg23
g24
(g25
(I0
tp2732
g27
tp2733
Rp2734
(I1
(I1
I2
tp2735
g14
I00
S'\x8c\xcc\xcc\xcc\xcc\xcc\xf8?\xe0\xcc\xcc\xcc\xcc\xcc\xf4\xbf'
p2736
tp2737
bsg33
I01
sbag1
(g2
g3
Ntp2738
Rp2739
(dp2740
g7
I8125
sg8
(lp2741
g10
(g14
S'm\x1e\x85\xebQ\xb8\x0f@'
p2742
tp2743
Rp2744
ag10
(g14
S'\x00{\x14\xaeG!"@'
p2745
tp2746
Rp2747
asg23
g24
(g25
(I0
tp2748
g27
tp2749
Rp2750
(I1
(I1
I2
tp2751
g14
I00
S'\x8c\xcc\xcc\xcc\xcc\xcc\xf8?\x14\x00\x00\x00\x00\x00\xf4\xbf'
p2752
tp2753
bsg33
I01
sbag1
(g2
g3
Ntp2754
Rp2755
(dp2756
g7
I8126
sg8
(lp2757
g10
(g14
S'\xf2\t\xd7\xa3p\xbd\x0e@'
p2758
tp2759
Rp2760
ag10
(g14
S'z\x8f\xc2\xf5(|"@'
p2761
tp2762
Rp2763
asg23
g24
(g25
(I0
tp2764
g27
tp2765
Rp2766
(I1
(I1
I2
tp2767
g14
I00
S'\x8c\xcc\xcc\xcc\xcc\xcc\xf8?H33333\xf3\xbf'
p2768
tp2769
bsg33
I01
sbag1
(g2
g3
Ntp2770
Rp2771
(dp2772
g7
I8127
sg8
(lp2773
g10
(g14
S'\x82\xcc\xcc\xcc\xcc\xcc\r@'
p2774
tp2775
Rp2776
ag10
(g14
S'\xb7\x99\x99\x99\x99\xd9"@'
p2777
tp2778
Rp2779
asg23
g24
(g25
(I0
tp2780
g27
tp2781
Rp2782
(I1
(I1
I2
tp2783
g14
I00
S'\x8c\xcc\xcc\xcc\xcc\xcc\xf8?|fffff\xf2\xbf'
p2784
tp2785
bsg33
I01
sbag1
(g2
g3
Ntp2786
Rp2787
(dp2788
g7
I8128
sg8
(lp2789
g10
(g14
S'\x1affff\xe6\x0c@'
p2790
tp2791
Rp2792
ag10
(g14
S'\xb7\x99\x99\x99\x999#@'
p2793
tp2794
Rp2795
asg23
g24
(g25
(I0
tp2796
g27
tp2797
Rp2798
(I1
(I1
I2
tp2799
g14
I00
S'\x8c\xcc\xcc\xcc\xcc\xcc\xf8?\xb0\x99\x99\x99\x99\x99\xf1\xbf'
p2800
tp2801
bsg33
I01
sbag1
(g2
g3
Ntp2802
Rp2803
(dp2804
g7
I8129
sg8
(lp2805
g10
(g14
S'\xbe\xd6\xa3p=\n\x0c@'
p2806
tp2807
Rp2808
ag10
(g14
S'x\x8f\xc2\xf5(\x9c#@'
p2809
tp2810
Rp2811
asg23
g24
(g25
(I0
tp2812
g27
tp2813
Rp2814
(I1
(I1
I2
tp2815
g14
I00
S'\x8c\xcc\xcc\xcc\xcc\xcc\xf8?\xe4\xcc\xcc\xcc\xcc\xcc\xf0\xbf'
p2816
tp2817
bsg33
I01
sbag1
(g2
g3
Ntp2818
Rp2819
(dp2820
g7
I8223
sg8
(lp2821
g10
(g14
S' \xe1z\x14\xae\x87\x11@'
p2822
tp2823
Rp2824
ag10
(g14
S'\xf7\xa3p=\n\xf7 @'
p2825
tp2826
Rp2827
asg23
g24
(g25
(I0
tp2828
g27
tp2829
Rp2830
(I1
(I1
I2
tp2831
g14
I00
S'X\x99\x99\x99\x99\x99\xf9?\xac\x99\x99\x99\x99\x99\xf5\xbf'
p2832
tp2833
bsg33
I01
sbag1
(g2
g3
Ntp2834
Rp2835
(dp2836
g7
I8224
sg8
(lp2837
g10
(g14
S'\xd8\xff\xff\xff\xff\xff\x10@'
p2838
tp2839
Rp2840
ag10
(g14
S'\xec\xcc\xcc\xcc\xccL!@'
p2841
tp2842
Rp2843
asg23
g24
(g25
(I0
tp2844
g27
tp2845
Rp2846
(I1
(I1
I2
tp2847
g14
I00
S'X\x99\x99\x99\x99\x99\xf9?\xe0\xcc\xcc\xcc\xcc\xcc\xf4\xbf'
p2848
tp2849
bsg33
I01
sbag1
(g2
g3
Ntp2850
Rp2851
(dp2852
g7
I8225
sg8
(lp2853
g10
(g14
S'\x16\n\xd7\xa3p}\x10@'
p2854
tp2855
Rp2856
ag10
(g14
S'\xa4\xebQ\xb8\x1e\xa5!@'
p2857
tp2858
Rp2859
asg23
g24
(g25
(I0
tp2860
g27
tp2861
Rp2862
(I1
(I1
I2
tp2863
g14
I00
S'X\x99\x99\x99\x99\x99\xf9?\x14\x00\x00\x00\x00\x00\xf4\xbf'
p2864
tp2865
bsg33
I01
sbag1
(g2
g3
Ntp2866
Rp2867
(dp2868
g7
I8226
sg8
(lp2869
g10
(g14
S'\xb0\xff\xff\xff\xff\xff\x0f@'
p2870
tp2871
Rp2872
ag10
(g14
S'\x1e\x00\x00\x00\x00\x00"@'
p2873
tp2874
Rp2875
asg23
g24
(g25
(I0
tp2876
g27
tp2877
Rp2878
(I1
(I1
I2
tp2879
g14
I00
S'X\x99\x99\x99\x99\x99\xf9?H33333\xf3\xbf'
p2880
tp2881
bsg33
I01
sbag1
(g2
g3
Ntp2882
Rp2883
(dp2884
g7
I8227
sg8
(lp2885
g10
(g14
S'@\xc2\xf5(\\\x0f\x0f@'
p2886
tp2887
Rp2888
ag10
(g14
S'[\n\xd7\xa3p]"@'
p2889
tp2890
Rp2891
asg23
g24
(g25
(I0
tp2892
g27
tp2893
Rp2894
(I1
(I1
I2
tp2895
g14
I00
S'X\x99\x99\x99\x99\x99\xf9?|fffff\xf2\xbf'
p2896
tp2897
bsg33
I01
sbag1
(g2
g3
Ntp2898
Rp2899
(dp2900
g7
I8228
sg8
(lp2901
g10
(g14
S'\xd8[\x8f\xc2\xf5(\x0e@'
p2902
tp2903
Rp2904
ag10
(g14
S'Z\n\xd7\xa3p\xbd"@'
p2905
tp2906
Rp2907
asg23
g24
(g25
(I0
tp2908
g27
tp2909
Rp2910
(I1
(I1
I2
tp2911
g14
I00
S'X\x99\x99\x99\x99\x99\xf9?\xb0\x99\x99\x99\x99\x99\xf1\xbf'
p2912
tp2913
bsg33
I01
sbag1
(g2
g3
Ntp2914
Rp2915
(dp2916
g7
I8229
sg8
(lp2917
g10
(g14
S'|\xcc\xcc\xcc\xccL\r@'
p2918
tp2919
Rp2920
ag10
(g14
S'\x1c\x00\x00\x00\x00 #@'
p2921
tp2922
Rp2923
asg23
g24
(g25
(I0
tp2924
g27
tp2925
Rp2926
(I1
(I1
I2
tp2927
g14
I00
S'X\x99\x99\x99\x99\x99\xf9?\xe4\xcc\xcc\xcc\xcc\xcc\xf0\xbf'
p2928
tp2929
bsg33
I01
sbag1
(g2
g3
Ntp2930
Rp2931
(dp2932
g7
I8323
sg8
(lp2933
g10
(g14
S'\x84G\xe1z\x14.\x12@'
p2934
tp2935
Rp2936
ag10
(g14
S']\n\xd7\xa3p} @'
p2937
tp2938
Rp2939
asg23
g24
(g25
(I0
tp2940
g27
tp2941
Rp2942
(I1
(I1
I2
tp2943
g14
I00
S'$fffff\xfa?\xac\x99\x99\x99\x99\x99\xf5\xbf'
p2944
tp2945
bsg33
I01
sbag1
(g2
g3
Ntp2946
Rp2947
(dp2948
g7
I8324
sg8
(lp2949
g10
(g14
S'<ffff\xa6\x11@'
p2950
tp2951
Rp2952
ag10
(g14
S'R3333\xd3 @'
p2953
tp2954
Rp2955
asg23
g24
(g25
(I0
tp2956
g27
tp2957
Rp2958
(I1
(I1
I2
tp2959
g14
I00
S'$fffff\xfa?\xe0\xcc\xcc\xcc\xcc\xcc\xf4\xbf'
p2960
tp2961
bsg33
I01
sbag1
(g2
g3
Ntp2962
Rp2963
(dp2964
g7
I8325
sg8
(lp2965
g10
(g14
S'zp=\n\xd7#\x11@'
p2966
tp2967
Rp2968
ag10
(g14
S'\nR\xb8\x1e\x85+!@'
p2969
tp2970
Rp2971
asg23
g24
(g25
(I0
tp2972
g27
tp2973
Rp2974
(I1
(I1
I2
tp2975
g14
I00
S'$fffff\xfa?\x14\x00\x00\x00\x00\x00\xf4\xbf'
p2976
tp2977
bsg33
I01
sbag1
(g2
g3
Ntp2978
Rp2979
(dp2980
g7
I8326
sg8
(lp2981
g10
(g14
S'<ffff\xa6\x10@'
p2982
tp2983
Rp2984
ag10
(g14
S'\x84ffff\x86!@'
p2985
tp2986
Rp2987
asg23
g24
(g25
(I0
tp2988
g27
tp2989
Rp2990
(I1
(I1
I2
tp2991
g14
I00
S'$fffff\xfa?H33333\xf3\xbf'
p2992
tp2993
bsg33
I01
sbag1
(g2
g3
Ntp2994
Rp2995
(dp2996
g7
I8327
sg8
(lp2997
g10
(g14
S'\x84G\xe1z\x14.\x10@'
p2998
tp2999
Rp3000
ag10
(g14
S'\xc1p=\n\xd7\xe3!@'
p3001
tp3002
Rp3003
asg23
g24
(g25
(I0
tp3004
g27
tp3005
Rp3006
(I1
(I1
I2
tp3007
g14
I00
S'$fffff\xfa?|fffff\xf2\xbf'
p3008
tp3009
bsg33
I01
sbag1
(g2
g3
Ntp3010
Rp3011
(dp3012
g7
I8328
sg8
(lp3013
g10
(g14
S'\xa0(\\\x8f\xc2u\x0f@'
p3014
tp3015
Rp3016
ag10
(g14
S'\xc0p=\n\xd7C"@'
p3017
tp3018
Rp3019
asg23
g24
(g25
(I0
tp3020
g27
tp3021
Rp3022
(I1
(I1
I2
tp3023
g14
I00
S'$fffff\xfa?\xb0\x99\x99\x99\x99\x99\xf1\xbf'
p3024
tp3025
bsg33
I01
sbag1
(g2
g3
Ntp3026
Rp3027
(dp3028
g7
I8422
sg8
(lp3029
g10
(g14
S'9fffff\x13@'
p3030
tp3031
Rp3032
ag10
(g14
S'\xa6fffff\x1f@'
p3033
tp3034
Rp3035
asg23
g24
(g25
(I0
tp3036
g27
tp3037
Rp3038
(I1
(I1
I2
tp3039
g14
I00
S'\xf023333\xfb?xfffff\xf6\xbf'
p3040
tp3041
bsg33
I01
sbag1
(g2
g3
Ntp3042
Rp3043
(dp3044
g7
I8423
sg8
(lp3045
g10
(g14
S'm\x99\x99\x99\x99\xd9\x12@'
p3046
tp3047
Rp3048
ag10
(g14
S'\x85ffff\x06 @'
p3049
tp3050
Rp3051
asg23
g24
(g25
(I0
tp3052
g27
tp3053
Rp3054
(I1
(I1
I2
tp3055
g14
I00
S'\xf023333\xfb?\xac\x99\x99\x99\x99\x99\xf5\xbf'
p3056
tp3057
bsg33
I01
sbag1
(g2
g3
Ntp3058
Rp3059
(dp3060
g7
I8424
sg8
(lp3061
g10
(g14
S'%\xb8\x1e\x85\xebQ\x12@'
p3062
tp3063
Rp3064
ag10
(g14
S'z\x8f\xc2\xf5(\\ @'
p3065
tp3066
Rp3067
asg23
g24
(g25
(I0
tp3068
g27
tp3069
Rp3070
(I1
(I1
I2
tp3071
g14
I00
S'\xf023333\xfb?\xe0\xcc\xcc\xcc\xcc\xcc\xf4\xbf'
p3072
tp3073
bsg33
I01
sbag1
(g2
g3
Ntp3074
Rp3075
(dp3076
g7
I8425
sg8
(lp3077
g10
(g14
S'b\xc2\xf5(\\\xcf\x11@'
p3078
tp3079
Rp3080
ag10
(g14
S'2\xaeG\xe1z\xb4 @'
p3081
tp3082
Rp3083
asg23
g24
(g25
(I0
tp3084
g27
tp3085
Rp3086
(I1
(I1
I2
tp3087
g14
I00
S'\xf023333\xfb?\x14\x00\x00\x00\x00\x00\xf4\xbf'
p3088
tp3089
bsg33
I01
sbag1
(g2
g3
Ntp3090
Rp3091
(dp3092
g7
I8426
sg8
(lp3093
g10
(g14
S'%\xb8\x1e\x85\xebQ\x11@'
p3094
tp3095
Rp3096
ag10
(g14
S'\xac\xc2\xf5(\\\x0f!@'
p3097
tp3098
Rp3099
asg23
g24
(g25
(I0
tp3100
g27
tp3101
Rp3102
(I1
(I1
I2
tp3103
g14
I00
S'\xf023333\xfb?H33333\xf3\xbf'
p3104
tp3105
bsg33
I01
sbag1
(g2
g3
Ntp3106
Rp3107
(dp3108
g7
I8427
sg8
(lp3109
g10
(g14
S'm\x99\x99\x99\x99\xd9\x10@'
p3110
tp3111
Rp3112
ag10
(g14
S'\xe9\xcc\xcc\xcc\xccl!@'
p3113
tp3114
Rp3115
asg23
g24
(g25
(I0
tp3116
g27
tp3117
Rp3118
(I1
(I1
I2
tp3119
g14
I00
S'\xf023333\xfb?|fffff\xf2\xbf'
p3120
tp3121
bsg33
I01
sbag1
(g2
g3
Ntp3122
Rp3123
(dp3124
g7
I8521
sg8
(lp3125
g10
(g14
S'\xfa[\x8f\xc2\xf5\xa8\x14@'
p3126
tp3127
Rp3128
ag10
(g14
S'\x9b\x8f\xc2\xf5(\xdc\x1d@'
p3129
tp3130
Rp3131
asg23
g24
(g25
(I0
tp3132
g27
tp3133
Rp3134
(I1
(I1
I2
tp3135
g14
I00
S'\xbc\xff\xff\xff\xff\xff\xfb?D33333\xf7\xbf'
p3136
tp3137
bsg33
I01
sbag1
(g2
g3
Ntp3138
Rp3139
(dp3140
g7
I8522
sg8
(lp3141
g10
(g14
S'\xa8\xa3p=\n\x17\x14@'
p3142
tp3143
Rp3144
ag10
(g14
S'|\n\xd7\xa3p}\x1e@'
p3145
tp3146
Rp3147
asg23
g24
(g25
(I0
tp3148
g27
tp3149
Rp3150
(I1
(I1
I2
tp3151
g14
I00
S'\xbc\xff\xff\xff\xff\xff\xfb?xfffff\xf6\xbf'
p3152
tp3153
bsg33
I01
sbag1
(g2
g3
Ntp3154
Rp3155
(dp3156
g7
I8523
sg8
(lp3157
g10
(g14
S'\xdb\xd6\xa3p=\x8a\x13@'
p3158
tp3159
Rp3160
ag10
(g14
S'\xe0p=\n\xd7#\x1f@'
p3161
tp3162
Rp3163
asg23
g24
(g25
(I0
tp3164
g27
tp3165
Rp3166
(I1
(I1
I2
tp3167
g14
I00
S'\xbc\xff\xff\xff\xff\xff\xfb?\xac\x99\x99\x99\x99\x99\xf5\xbf'
p3168
tp3169
bsg33
I01
sbag1
(g2
g3
Ntp3170
Rp3171
(dp3172
g7
I8524
sg8
(lp3173
g10
(g14
S'\x94\xf5(\\\x8f\x02\x13@'
p3174
tp3175
Rp3176
ag10
(g14
S'\xcb\xc2\xf5(\\\xcf\x1f@'
p3177
tp3178
Rp3179
asg23
g24
(g25
(I0
tp3180
g27
tp3181
Rp3182
(I1
(I1
I2
tp3183
g14
I00
S'\xbc\xff\xff\xff\xff\xff\xfb?\xe0\xcc\xcc\xcc\xcc\xcc\xf4\xbf'
p3184
tp3185
bsg33
I01
sbag1
(g2
g3
Ntp3186
Rp3187
(dp3188
g7
I8525
sg8
(lp3189
g10
(g14
S'\xd1\xff\xff\xff\xff\x7f\x12@'
p3190
tp3191
Rp3192
ag10
(g14
S'\x1d\x00\x00\x00\x00@ @'
p3193
tp3194
Rp3195
asg23
g24
(g25
(I0
tp3196
g27
tp3197
Rp3198
(I1
(I1
I2
tp3199
g14
I00
S'\xbc\xff\xff\xff\xff\xff\xfb?\x14\x00\x00\x00\x00\x00\xf4\xbf'
p3200
tp3201
bsg33
I01
sbag1
(g2
g3
Ntp3202
Rp3203
(dp3204
g7
I8526
sg8
(lp3205
g10
(g14
S'\x94\xf5(\\\x8f\x02\x12@'
p3206
tp3207
Rp3208
ag10
(g14
S'\x98\x14\xaeG\xe1\x9a @'
p3209
tp3210
Rp3211
asg23
g24
(g25
(I0
tp3212
g27
tp3213
Rp3214
(I1
(I1
I2
tp3215
g14
I00
S'\xbc\xff\xff\xff\xff\xff\xfb?H33333\xf3\xbf'
p3216
tp3217
bsg33
I01
sbag1
(g2
g3
Ntp3218
Rp3219
(dp3220
g7
I8620
sg8
(lp3221
g10
(g14
S'\xc4(\\\x8f\xc2\xf5\x15@'
p3222
tp3223
Rp3224
ag10
(g14
S'\x9c\x8f\xc2\xf5(\\\x1c@'
p3225
tp3226
Rp3227
asg23
g24
(g25
(I0
tp3228
g27
tp3229
Rp3230
(I1
(I1
I2
tp3231
g14
I00
S'\x88\xcc\xcc\xcc\xcc\xcc\xfc?\x10\x00\x00\x00\x00\x00\xf8\xbf'
p3232
tp3233
bsg33
I01
sbag1
(g2
g3
Ntp3234
Rp3235
(dp3236
g7
I8621
sg8
(lp3237
g10
(g14
S'\xed\x84\xebQ\xb8^\x15@'
p3238
tp3239
Rp3240
ag10
(g14
S'\xf7\x1e\x85\xebQ\xf8\x1c@'
p3241
tp3242
Rp3243
asg23
g24
(g25
(I0
tp3244
g27
tp3245
Rp3246
(I1
(I1
I2
tp3247
g14
I00
S'\x88\xcc\xcc\xcc\xcc\xcc\xfc?D33333\xf7\xbf'
p3248
tp3249
bsg33
I01
sbag1
(g2
g3
Ntp3250
Rp3251
(dp3252
g7
I8622
sg8
(lp3253
g10
(g14
S'\x9b\xcc\xcc\xcc\xcc\xcc\x14@'
p3254
tp3255
Rp3256
ag10
(g14
S'\xd8\x99\x99\x99\x99\x99\x1d@'
p3257
tp3258
Rp3259
asg23
g24
(g25
(I0
tp3260
g27
tp3261
Rp3262
(I1
(I1
I2
tp3263
g14
I00
S'\x88\xcc\xcc\xcc\xcc\xcc\xfc?xfffff\xf6\xbf'
p3264
tp3265
bsg33
I01
sbag1
(g2
g3
Ntp3266
Rp3267
(dp3268
g7
I8623
sg8
(lp3269
g10
(g14
S'\xcf\xff\xff\xff\xff?\x14@'
p3270
tp3271
Rp3272
ag10
(g14
S'<\x00\x00\x00\x00@\x1e@'
p3273
tp3274
Rp3275
asg23
g24
(g25
(I0
tp3276
g27
tp3277
Rp3278
(I1
(I1
I2
tp3279
g14
I00
S'\x88\xcc\xcc\xcc\xcc\xcc\xfc?\xac\x99\x99\x99\x99\x99\xf5\xbf'
p3280
tp3281
bsg33
I01
sbag1
(g2
g3
Ntp3282
Rp3283
(dp3284
g7
I8624
sg8
(lp3285
g10
(g14
S'\x87\x1e\x85\xebQ\xb8\x13@'
p3286
tp3287
Rp3288
ag10
(g14
S"'R\xb8\x1e\x85\xeb\x1e@"
p3289
tp3290
Rp3291
asg23
g24
(g25
(I0
tp3292
g27
tp3293
Rp3294
(I1
(I1
I2
tp3295
g14
I00
S'\x88\xcc\xcc\xcc\xcc\xcc\xfc?\xe0\xcc\xcc\xcc\xcc\xcc\xf4\xbf'
p3296
tp3297
bsg33
I01
sbag1
(g2
g3
Ntp3298
Rp3299
(dp3300
g7
I8625
sg8
(lp3301
g10
(g14
S'\xc4(\\\x8f\xc25\x13@'
p3302
tp3303
Rp3304
ag10
(g14
S'\x96\x8f\xc2\xf5(\x9c\x1f@'
p3305
tp3306
Rp3307
asg23
g24
(g25
(I0
tp3308
g27
tp3309
Rp3310
(I1
(I1
I2
tp3311
g14
I00
S'\x88\xcc\xcc\xcc\xcc\xcc\xfc?\x14\x00\x00\x00\x00\x00\xf4\xbf'
p3312
tp3313
bsg33
I01
sbag1
(g2
g3
Ntp3314
Rp3315
(dp3316
g7
I8626
sg8
(lp3317
g10
(g14
S'\x87\x1e\x85\xebQ\xb8\x12@'
p3318
tp3319
Rp3320
ag10
(g14
S'F\\\x8f\xc2\xf5( @'
p3321
tp3322
Rp3323
asg23
g24
(g25
(I0
tp3324
g27
tp3325
Rp3326
(I1
(I1
I2
tp3327
g14
I00
S'\x88\xcc\xcc\xcc\xcc\xcc\xfc?H33333\xf3\xbf'
p3328
tp3329
bsg33
I01
sbag1
(g2
g3
Ntp3330
Rp3331
(dp3332
g7
I8720
sg8
(lp3333
g10
(g14
S'<=\n\xd7\xa3\xb0\x16@'
p3334
tp3335
Rp3336
ag10
(g14
S'|\n\xd7\xa3p}\x1b@'
p3337
tp3338
Rp3339
asg23
g24
(g25
(I0
tp3340
g27
tp3341
Rp3342
(I1
(I1
I2
tp3343
g14
I00
S'T\x99\x99\x99\x99\x99\xfd?\x10\x00\x00\x00\x00\x00\xf8\xbf'
p3344
tp3345
bsg33
I01
sbag1
(g2
g3
Ntp3346
Rp3347
(dp3348
g7
I8721
sg8
(lp3349
g10
(g14
S'f\x99\x99\x99\x99\x19\x16@'
p3350
tp3351
Rp3352
ag10
(g14
S'\xd7\x99\x99\x99\x99\x19\x1c@'
p3353
tp3354
Rp3355
asg23
g24
(g25
(I0
tp3356
g27
tp3357
Rp3358
(I1
(I1
I2
tp3359
g14
I00
S'T\x99\x99\x99\x99\x99\xfd?D33333\xf7\xbf'
p3360
tp3361
bsg33
I01
sbag1
(g2
g3
Ntp3362
Rp3363
(dp3364
g7
I8722
sg8
(lp3365
g10
(g14
S'\x14\xe1z\x14\xae\x87\x15@'
p3366
tp3367
Rp3368
ag10
(g14
S'\xb8\x14\xaeG\xe1\xba\x1c@'
p3369
tp3370
Rp3371
asg23
g24
(g25
(I0
tp3372
g27
tp3373
Rp3374
(I1
(I1
I2
tp3375
g14
I00
S'T\x99\x99\x99\x99\x99\xfd?xfffff\xf6\xbf'
p3376
tp3377
bsg33
I01
sbag1
(g2
g3
Ntp3378
Rp3379
(dp3380
g7
I8723
sg8
(lp3381
g10
(g14
S'G\x14\xaeG\xe1\xfa\x14@'
p3382
tp3383
Rp3384
ag10
(g14
S'\x1c{\x14\xaeGa\x1d@'
p3385
tp3386
Rp3387
asg23
g24
(g25
(I0
tp3388
g27
tp3389
Rp3390
(I1
(I1
I2
tp3391
g14
I00
S'T\x99\x99\x99\x99\x99\xfd?\xac\x99\x99\x99\x99\x99\xf5\xbf'
p3392
tp3393
bsg33
I01
sbag1
(g2
g3
Ntp3394
Rp3395
(dp3396
g7
I8724
sg8
(lp3397
g10
(g14
S'\x003333s\x14@'
p3398
tp3399
Rp3400
ag10
(g14
S'\x07\xcd\xcc\xcc\xcc\x0c\x1e@'
p3401
tp3402
Rp3403
asg23
g24
(g25
(I0
tp3404
g27
tp3405
Rp3406
(I1
(I1
I2
tp3407
g14
I00
S'T\x99\x99\x99\x99\x99\xfd?\xe0\xcc\xcc\xcc\xcc\xcc\xf4\xbf'
p3408
tp3409
bsg33
I01
sbag1
(g2
g3
Ntp3410
Rp3411
(dp3412
g7
I8725
sg8
(lp3413
g10
(g14
S'==\n\xd7\xa3\xf0\x13@'
p3414
tp3415
Rp3416
ag10
(g14
S'v\n\xd7\xa3p\xbd\x1e@'
p3417
tp3418
Rp3419
asg23
g24
(g25
(I0
tp3420
g27
tp3421
Rp3422
(I1
(I1
I2
tp3423
g14
I00
S'T\x99\x99\x99\x99\x99\xfd?\x14\x00\x00\x00\x00\x00\xf4\xbf'
p3424
tp3425
bsg33
I01
sbag1
(g2
g3
Ntp3426
Rp3427
(dp3428
g7
I8819
sg8
(lp3429
g10
(g14
S'\x96\xcc\xcc\xcc\xcc\x0c\x18@'
p3430
tp3431
Rp3432
ag10
(g14
S'\x0c\xcd\xcc\xcc\xcc\x0c\x1a@'
p3433
tp3434
Rp3435
asg23
g24
(g25
(I0
tp3436
g27
tp3437
Rp3438
(I1
(I1
I2
tp3439
g14
I00
S' fffff\xfe?\xdc\xcc\xcc\xcc\xcc\xcc\xf8\xbf'
p3440
tp3441
bsg33
I01
sbag1
(g2
g3
Ntp3442
Rp3443
(dp3444
g7
I8820
sg8
(lp3445
g10
(g14
S':=\n\xd7\xa3p\x17@'
p3446
tp3447
Rp3448
ag10
(g14
S'\xe2p=\n\xd7\xa3\x1a@'
p3449
tp3450
Rp3451
asg23
g24
(g25
(I0
tp3452
g27
tp3453
Rp3454
(I1
(I1
I2
tp3455
g14
I00
S' fffff\xfe?\x10\x00\x00\x00\x00\x00\xf8\xbf'
p3456
tp3457
bsg33
I01
sbag1
(g2
g3
Ntp3458
Rp3459
(dp3460
g7
I8821
sg8
(lp3461
g10
(g14
S'c\x99\x99\x99\x99\xd9\x16@'
p3462
tp3463
Rp3464
ag10
(g14
S'=\x00\x00\x00\x00@\x1b@'
p3465
tp3466
Rp3467
asg23
g24
(g25
(I0
tp3468
g27
tp3469
Rp3470
(I1
(I1
I2
tp3471
g14
I00
S' fffff\xfe?D33333\xf7\xbf'
p3472
tp3473
bsg33
I01
sbag1
(g2
g3
Ntp3474
Rp3475
(dp3476
g7
I8822
sg8
(lp3477
g10
(g14
S'\x11\xe1z\x14\xaeG\x16@'
p3478
tp3479
Rp3480
ag10
(g14
S'\x1e{\x14\xaeG\xe1\x1b@'
p3481
tp3482
Rp3483
asg23
g24
(g25
(I0
tp3484
g27
tp3485
Rp3486
(I1
(I1
I2
tp3487
g14
I00
S' fffff\xfe?xfffff\xf6\xbf'
p3488
tp3489
bsg33
I01
sbag1
(g2
g3
Ntp3490
Rp3491
(dp3492
g7
I8823
sg8
(lp3493
g10
(g14
S'E\x14\xaeG\xe1\xba\x15@'
p3494
tp3495
Rp3496
ag10
(g14
S'\x82\xe1z\x14\xae\x87\x1c@'
p3497
tp3498
Rp3499
asg23
g24
(g25
(I0
tp3500
g27
tp3501
Rp3502
(I1
(I1
I2
tp3503
g14
I00
S' fffff\xfe?\xac\x99\x99\x99\x99\x99\xf5\xbf'
p3504
tp3505
bsg33
I01
sbag1
(g2
g3
Ntp3506
Rp3507
(dp3508
g7
I8824
sg8
(lp3509
g10
(g14
S'\xfd23333\x15@'
p3510
tp3511
Rp3512
ag10
(g14
S'm33333\x1d@'
p3513
tp3514
Rp3515
asg23
g24
(g25
(I0
tp3516
g27
tp3517
Rp3518
(I1
(I1
I2
tp3519
g14
I00
S' fffff\xfe?\xe0\xcc\xcc\xcc\xcc\xcc\xf4\xbf'
p3520
tp3521
bsg33
I01
sbag1
(g2
g3
Ntp3522
Rp3523
(dp3524
g7
I8918
sg8
(lp3525
g10
(g14
S'\xfa2333s\x19@'
p3526
tp3527
Rp3528
ag10
(g14
S'\xa5ffff\xa6\x18@'
p3529
tp3530
Rp3531
asg23
g24
(g25
(I0
tp3532
g27
tp3533
Rp3534
(I1
(I1
I2
tp3535
g14
I00
S'\xec23333\xff?\xa8\x99\x99\x99\x99\x99\xf9\xbf'
p3536
tp3537
bsg33
I01
sbag1
(g2
g3
Ntp3538
Rp3539
(dp3540
g7
I8919
sg8
(lp3541
g10
(g14
S'\x18\xb8\x1e\x85\xeb\xd1\x18@'
p3542
tp3543
Rp3544
ag10
(g14
S'\xf6\x1e\x85\xebQ8\x19@'
p3545
tp3546
Rp3547
asg23
g24
(g25
(I0
tp3548
g27
tp3549
Rp3550
(I1
(I1
I2
tp3551
g14
I00
S'\xec23333\xff?\xdc\xcc\xcc\xcc\xcc\xcc\xf8\xbf'
p3552
tp3553
bsg33
I01
sbag1
(g2
g3
Ntp3554
Rp3555
(dp3556
g7
I8920
sg8
(lp3557
g10
(g14
S'\xbc(\\\x8f\xc25\x18@'
p3558
tp3559
Rp3560
ag10
(g14
S'\xcc\xc2\xf5(\\\xcf\x19@'
p3561
tp3562
Rp3563
asg23
g24
(g25
(I0
tp3564
g27
tp3565
Rp3566
(I1
(I1
I2
tp3567
g14
I00
S'\xec23333\xff?\x10\x00\x00\x00\x00\x00\xf8\xbf'
p3568
tp3569
bsg33
I01
sbag1
(g2
g3
Ntp3570
Rp3571
(dp3572
g7
I8921
sg8
(lp3573
g10
(g14
S'\xe6\x84\xebQ\xb8\x9e\x17@'
p3574
tp3575
Rp3576
ag10
(g14
S"'R\xb8\x1e\x85k\x1a@"
p3577
tp3578
Rp3579
asg23
g24
(g25
(I0
tp3580
g27
tp3581
Rp3582
(I1
(I1
I2
tp3583
g14
I00
S'\xec23333\xff?D33333\xf7\xbf'
p3584
tp3585
bsg33
I01
sbag1
(g2
g3
Ntp3586
Rp3587
(dp3588
g7
I8922
sg8
(lp3589
g10
(g14
S'\x94\xcc\xcc\xcc\xcc\x0c\x17@'
p3590
tp3591
Rp3592
ag10
(g14
S'\x08\xcd\xcc\xcc\xcc\x0c\x1b@'
p3593
tp3594
Rp3595
asg23
g24
(g25
(I0
tp3596
g27
tp3597
Rp3598
(I1
(I1
I2
tp3599
g14
I00
S'\xec23333\xff?xfffff\xf6\xbf'
p3600
tp3601
bsg33
I01
sbag1
(g2
g3
Ntp3602
Rp3603
(dp3604
g7
I8923
sg8
(lp3605
g10
(g14
S'\xc7\xff\xff\xff\xff\x7f\x16@'
p3606
tp3607
Rp3608
ag10
(g14
S'l3333\xb3\x1b@'
p3609
tp3610
Rp3611
asg23
g24
(g25
(I0
tp3612
g27
tp3613
Rp3614
(I1
(I1
I2
tp3615
g14
I00
S'\xec23333\xff?\xac\x99\x99\x99\x99\x99\xf5\xbf'
p3616
tp3617
bsg33
I01
sbag1
(g2
g3
Ntp3618
Rp3619
(dp3620
g7
I9017
sg8
(lp3621
g10
(g14
S'gp=\n\xd7\xe3\x1a@'
p3622
tp3623
Rp3624
ag10
(g14
S'I\xd7\xa3p=J\x17@'
p3625
tp3626
Rp3627
asg23
g24
(g25
(I0
tp3628
g27
tp3629
Rp3630
(I1
(I1
I2
tp3631
g14
I00
S'\xb8\xff\xff\xff\xff\xff\xff?tfffff\xfa\xbf'
p3632
tp3633
bsg33
I01
sbag1
(g2
g3
Ntp3634
Rp3635
(dp3636
g7
I9018
sg8
(lp3637
g10
(g14
S'\x01\n\xd7\xa3p=\x1a@'
p3638
tp3639
Rp3640
ag10
(g14
S'\x15\xa4p=\n\xd7\x17@'
p3641
tp3642
Rp3643
asg23
g24
(g25
(I0
tp3644
g27
tp3645
Rp3646
(I1
(I1
I2
tp3647
g14
I00
S'\xb8\xff\xff\xff\xff\xff\xff?\xa8\x99\x99\x99\x99\x99\xf9\xbf'
p3648
tp3649
bsg33
I01
sbag1
(g2
g3
Ntp3650
Rp3651
(dp3652
g7
I9019
sg8
(lp3653
g10
(g14
S' \x8f\xc2\xf5(\x9c\x19@'
p3654
tp3655
Rp3656
ag10
(g14
S'f\\\x8f\xc2\xf5h\x18@'
p3657
tp3658
Rp3659
asg23
g24
(g25
(I0
tp3660
g27
tp3661
Rp3662
(I1
(I1
I2
tp3663
g14
I00
S'\xb8\xff\xff\xff\xff\xff\xff?\xdc\xcc\xcc\xcc\xcc\xcc\xf8\xbf'
p3664
tp3665
bsg33
I01
sbag1
(g2
g3
Ntp3666
Rp3667
(dp3668
g7
I9020
sg8
(lp3669
g10
(g14
S'\xc4\xff\xff\xff\xff\xff\x18@'
p3670
tp3671
Rp3672
ag10
(g14
S'<\x00\x00\x00\x00\x00\x19@'
p3673
tp3674
Rp3675
asg23
g24
(g25
(I0
tp3676
g27
tp3677
Rp3678
(I1
(I1
I2
tp3679
g14
I00
S'\xb8\xff\xff\xff\xff\xff\xff?\x10\x00\x00\x00\x00\x00\xf8\xbf'
p3680
tp3681
bsg33
I01
sbag1
(g2
g3
Ntp3682
Rp3683
(dp3684
g7
I9021
sg8
(lp3685
g10
(g14
S'\xed[\x8f\xc2\xf5h\x18@'
p3686
tp3687
Rp3688
ag10
(g14
S'\x97\x8f\xc2\xf5(\x9c\x19@'
p3689
tp3690
Rp3691
asg23
g24
(g25
(I0
tp3692
g27
tp3693
Rp3694
(I1
(I1
I2
tp3695
g14
I00
S'\xb8\xff\xff\xff\xff\xff\xff?D33333\xf7\xbf'
p3696
tp3697
bsg33
I01
sbag1
(g2
g3
Ntp3698
Rp3699
(dp3700
g7
I9022
sg8
(lp3701
g10
(g14
S'\x9b\xa3p=\n\xd7\x17@'
p3702
tp3703
Rp3704
ag10
(g14
S'x\n\xd7\xa3p=\x1a@'
p3705
tp3706
Rp3707
asg23
g24
(g25
(I0
tp3708
g27
tp3709
Rp3710
(I1
(I1
I2
tp3711
g14
I00
S'\xb8\xff\xff\xff\xff\xff\xff?xfffff\xf6\xbf'
p3712
tp3713
bsg33
I01
sbag1
(g2
g3
Ntp3714
Rp3715
(dp3716
g7
I9023
sg8
(lp3717
g10
(g14
S'\xcf\xd6\xa3p=J\x17@'
p3718
tp3719
Rp3720
ag10
(g14
S'\xdcp=\n\xd7\xe3\x1a@'
p3721
tp3722
Rp3723
asg23
g24
(g25
(I0
tp3724
g27
tp3725
Rp3726
(I1
(I1
I2
tp3727
g14
I00
S'\xb8\xff\xff\xff\xff\xff\xff?\xac\x99\x99\x99\x99\x99\xf5\xbf'
p3728
tp3729
bsg33
I01
sbag1
(g2
g3
Ntp3730
Rp3731
(dp3732
g7
I9117
sg8
(lp3733
g10
(g14
S'\xf42333\xb3\x1b@'
p3734
tp3735
Rp3736
ag10
(g14
S'>\x00\x00\x00\x00\x80\x16@'
p3737
tp3738
Rp3739
asg23
g24
(g25
(I0
tp3740
g27
tp3741
Rp3742
(I1
(I1
I2
tp3743
g14
I00
S'Bfffff\x00@tfffff\xfa\xbf'
p3744
tp3745
bsg33
I01
sbag1
(g2
g3
Ntp3746
Rp3747
(dp3748
g7
I9118
sg8
(lp3749
g10
(g14
S'\x8e\xcc\xcc\xcc\xcc\x0c\x1b@'
p3750
tp3751
Rp3752
ag10
(g14
S'\n\xcd\xcc\xcc\xcc\x0c\x17@'
p3753
tp3754
Rp3755
asg23
g24
(g25
(I0
tp3756
g27
tp3757
Rp3758
(I1
(I1
I2
tp3759
g14
I00
S'Bfffff\x00@\xa8\x99\x99\x99\x99\x99\xf9\xbf'
p3760
tp3761
bsg33
I01
sbag1
(g2
g3
Ntp3762
Rp3763
(dp3764
g7
I9119
sg8
(lp3765
g10
(g14
S'\xadQ\xb8\x1e\x85k\x1a@'
p3766
tp3767
Rp3768
ag10
(g14
S'Z\x85\xebQ\xb8\x9e\x17@'
p3769
tp3770
Rp3771
asg23
g24
(g25
(I0
tp3772
g27
tp3773
Rp3774
(I1
(I1
I2
tp3775
g14
I00
S'Bfffff\x00@\xdc\xcc\xcc\xcc\xcc\xcc\xf8\xbf'
p3776
tp3777
bsg33
I01
sbag1
(g2
g3
Ntp3778
Rp3779
(dp3780
g7
I9120
sg8
(lp3781
g10
(g14
S'Q\xc2\xf5(\\\xcf\x19@'
p3782
tp3783
Rp3784
ag10
(g14
S'0)\\\x8f\xc25\x18@'
p3785
tp3786
Rp3787
asg23
g24
(g25
(I0
tp3788
g27
tp3789
Rp3790
(I1
(I1
I2
tp3791
g14
I00
S'Bfffff\x00@\x10\x00\x00\x00\x00\x00\xf8\xbf'
p3792
tp3793
bsg33
I01
sbag1
(g2
g3
Ntp3794
Rp3795
(dp3796
g7
I9121
sg8
(lp3797
g10
(g14
S'z\x1e\x85\xebQ8\x19@'
p3798
tp3799
Rp3800
ag10
(g14
S'\x8c\xb8\x1e\x85\xeb\xd1\x18@'
p3801
tp3802
Rp3803
asg23
g24
(g25
(I0
tp3804
g27
tp3805
Rp3806
(I1
(I1
I2
tp3807
g14
I00
S'Bfffff\x00@D33333\xf7\xbf'
p3808
tp3809
bsg33
I01
sbag1
(g2
g3
Ntp3810
Rp3811
(dp3812
g7
I9122
sg8
(lp3813
g10
(g14
S'(ffff\xa6\x18@'
p3814
tp3815
Rp3816
ag10
(g14
S'l3333s\x19@'
p3817
tp3818
Rp3819
asg23
g24
(g25
(I0
tp3820
g27
tp3821
Rp3822
(I1
(I1
I2
tp3823
g14
I00
S'Bfffff\x00@xfffff\xf6\xbf'
p3824
tp3825
bsg33
I01
sbag1
(g2
g3
Ntp3826
Rp3827
(dp3828
g7
I9216
sg8
(lp3829
g10
(g14
S'\xf123333\x1d@'
p3830
tp3831
Rp3832
ag10
(g14
S'q33333\x15@'
p3833
tp3834
Rp3835
asg23
g24
(g25
(I0
tp3836
g27
tp3837
Rp3838
(I1
(I1
I2
tp3839
g14
I00
S'\xa8\xcc\xcc\xcc\xcc\xcc\x00@@33333\xfb\xbf'
p3840
tp3841
bsg33
I01
sbag1
(g2
g3
Ntp3842
Rp3843
(dp3844
g7
I9217
sg8
(lp3845
g10
(g14
S'\x06\xe1z\x14\xae\x87\x1c@'
p3846
tp3847
Rp3848
ag10
(g14
S'\xb8\x14\xaeG\xe1\xba\x15@'
p3849
tp3850
Rp3851
asg23
g24
(g25
(I0
tp3852
g27
tp3853
Rp3854
(I1
(I1
I2
tp3855
g14
I00
S'\xa8\xcc\xcc\xcc\xcc\xcc\x00@tfffff\xfa\xbf'
p3856
tp3857
bsg33
I01
sbag1
(g2
g3
Ntp3858
Rp3859
(dp3860
g7
I9218
sg8
(lp3861
g10
(g14
S'\xa0z\x14\xaeG\xe1\x1b@'
p3862
tp3863
Rp3864
ag10
(g14
S'\x84\xe1z\x14\xaeG\x16@'
p3865
tp3866
Rp3867
asg23
g24
(g25
(I0
tp3868
g27
tp3869
Rp3870
(I1
(I1
I2
tp3871
g14
I00
S'\xa8\xcc\xcc\xcc\xcc\xcc\x00@\xa8\x99\x99\x99\x99\x99\xf9\xbf'
p3872
tp3873
bsg33
I01
sbag1
(g2
g3
Ntp3874
Rp3875
(dp3876
g7
I9219
sg8
(lp3877
g10
(g14
S'\xbf\xff\xff\xff\xff?\x1b@'
p3878
tp3879
Rp3880
ag10
(g14
S'\xd4\x99\x99\x99\x99\xd9\x16@'
p3881
tp3882
Rp3883
asg23
g24
(g25
(I0
tp3884
g27
tp3885
Rp3886
(I1
(I1
I2
tp3887
g14
I00
S'\xa8\xcc\xcc\xcc\xcc\xcc\x00@\xdc\xcc\xcc\xcc\xcc\xcc\xf8\xbf'
p3888
tp3889
bsg33
I01
sbag1
(g2
g3
Ntp3890
Rp3891
(dp3892
g7
I9220
sg8
(lp3893
g10
(g14
S'cp=\n\xd7\xa3\x1a@'
p3894
tp3895
Rp3896
ag10
(g14
S'\xaa=\n\xd7\xa3p\x17@'
p3897
tp3898
Rp3899
asg23
g24
(g25
(I0
tp3900
g27
tp3901
Rp3902
(I1
(I1
I2
tp3903
g14
I00
S'\xa8\xcc\xcc\xcc\xcc\xcc\x00@\x10\x00\x00\x00\x00\x00\xf8\xbf'
p3904
tp3905
bsg33
I01
sbag1
(g2
g3
Ntp3906
Rp3907
(dp3908
g7
I9221
sg8
(lp3909
g10
(g14
S'\x8c\xcc\xcc\xcc\xcc\x0c\x1a@'
p3910
tp3911
Rp3912
ag10
(g14
S'\x06\xcd\xcc\xcc\xcc\x0c\x18@'
p3913
tp3914
Rp3915
asg23
g24
(g25
(I0
tp3916
g27
tp3917
Rp3918
(I1
(I1
I2
tp3919
g14
I00
S'\xa8\xcc\xcc\xcc\xcc\xcc\x00@D33333\xf7\xbf'
p3920
tp3921
bsg33
I01
sbag1
(g2
g3
Ntp3922
Rp3923
(dp3924
g7
I9315
sg8
(lp3925
g10
(g14
S'\xf8\t\xd7\xa3p\xbd\x1e@'
p3926
tp3927
Rp3928
ag10
(g14
S'\xae=\n\xd7\xa3\xf0\x13@'
p3929
tp3930
Rp3931
asg23
g24
(g25
(I0
tp3932
g27
tp3933
Rp3934
(I1
(I1
I2
tp3935
g14
I00
S'\x0e33333\x01@\x0c\x00\x00\x00\x00\x00\xfc\xbf'
p3936
tp3937
bsg33
I01
sbag1
(g2
g3
Ntp3938
Rp3939
(dp3940
g7
I9316
sg8
(lp3941
g10
(g14
S'\x87\xcc\xcc\xcc\xcc\x0c\x1e@'
p3942
tp3943
Rp3944
ag10
(g14
S'p3333s\x14@'
p3945
tp3946
Rp3947
asg23
g24
(g25
(I0
tp3948
g27
tp3949
Rp3950
(I1
(I1
I2
tp3951
g14
I00
S'\x0e33333\x01@@33333\xfb\xbf'
p3952
tp3953
bsg33
I01
sbag1
(g2
g3
Ntp3954
Rp3955
(dp3956
g7
I9317
sg8
(lp3957
g10
(g14
S'\x9cz\x14\xaeGa\x1d@'
p3958
tp3959
Rp3960
ag10
(g14
S'\xb6\x14\xaeG\xe1\xfa\x14@'
p3961
tp3962
Rp3963
asg23
g24
(g25
(I0
tp3964
g27
tp3965
Rp3966
(I1
(I1
I2
tp3967
g14
I00
S'\x0e33333\x01@tfffff\xfa\xbf'
p3968
tp3969
bsg33
I01
sbag1
(g2
g3
Ntp3970
Rp3971
(dp3972
g7
I9318
sg8
(lp3973
g10
(g14
S'6\x14\xaeG\xe1\xba\x1c@'
p3974
tp3975
Rp3976
ag10
(g14
S'\x82\xe1z\x14\xae\x87\x15@'
p3977
tp3978
Rp3979
asg23
g24
(g25
(I0
tp3980
g27
tp3981
Rp3982
(I1
(I1
I2
tp3983
g14
I00
S'\x0e33333\x01@\xa8\x99\x99\x99\x99\x99\xf9\xbf'
p3984
tp3985
bsg33
I01
sbag1
(g2
g3
Ntp3986
Rp3987
(dp3988
g7
I9319
sg8
(lp3989
g10
(g14
S'U\x99\x99\x99\x99\x19\x1c@'
p3990
tp3991
Rp3992
ag10
(g14
S'\xd4\x99\x99\x99\x99\x19\x16@'
p3993
tp3994
Rp3995
asg23
g24
(g25
(I0
tp3996
g27
tp3997
Rp3998
(I1
(I1
I2
tp3999
g14
I00
S'\x0e33333\x01@\xdc\xcc\xcc\xcc\xcc\xcc\xf8\xbf'
p4000
tp4001
bsg33
I01
sbag1
(g2
g3
Ntp4002
Rp4003
(dp4004
g7
I9320
sg8
(lp4005
g10
(g14
S'\xf9\t\xd7\xa3p}\x1b@'
p4006
tp4007
Rp4008
ag10
(g14
S'\xaa=\n\xd7\xa3\xb0\x16@'
p4009
tp4010
Rp4011
asg23
g24
(g25
(I0
tp4012
g27
tp4013
Rp4014
(I1
(I1
I2
tp4015
g14
I00
S'\x0e33333\x01@\x10\x00\x00\x00\x00\x00\xf8\xbf'
p4016
tp4017
bsg33
I01
sbag1
(g2
g3
Ntp4018
Rp4019
(dp4020
g7
I9414
sg8
(lp4021
g10
(g14
S'\x04\\\x8f\xc2\xf5( @'
p4022
tp4023
Rp4024
ag10
(g14
S'\xf5\x1e\x85\xebQ\xb8\x12@'
p4025
tp4026
Rp4027
asg23
g24
(g25
(I0
tp4028
g27
tp4029
Rp4030
(I1
(I1
I2
tp4031
g14
I00
S't\x99\x99\x99\x99\x99\x01@\xd8\xcc\xcc\xcc\xcc\xcc\xfc\xbf'
p4032
tp4033
bsg33
I01
sbag1
(g2
g3
Ntp4034
Rp4035
(dp4036
g7
I9415
sg8
(lp4037
g10
(g14
S'\x14\x8f\xc2\xf5(\x9c\x1f@'
p4038
tp4039
Rp4040
ag10
(g14
S'2)\\\x8f\xc25\x13@'
p4041
tp4042
Rp4043
asg23
g24
(g25
(I0
tp4044
g27
tp4045
Rp4046
(I1
(I1
I2
tp4047
g14
I00
S't\x99\x99\x99\x99\x99\x01@\x0c\x00\x00\x00\x00\x00\xfc\xbf'
p4048
tp4049
bsg33
I01
sbag1
(g2
g3
Ntp4050
Rp4051
(dp4052
g7
I9416
sg8
(lp4053
g10
(g14
S'\xa3Q\xb8\x1e\x85\xeb\x1e@'
p4054
tp4055
Rp4056
ag10
(g14
S'\xf4\x1e\x85\xebQ\xb8\x13@'
p4057
tp4058
Rp4059
asg23
g24
(g25
(I0
tp4060
g27
tp4061
Rp4062
(I1
(I1
I2
tp4063
g14
I00
S't\x99\x99\x99\x99\x99\x01@@33333\xfb\xbf'
p4064
tp4065
bsg33
I01
sbag1
(g2
g3
Ntp4066
Rp4067
(dp4068
g7
I9417
sg8
(lp4069
g10
(g14
S'\xb8\xff\xff\xff\xff?\x1e@'
p4070
tp4071
Rp4072
ag10
(g14
S':\x00\x00\x00\x00@\x14@'
p4073
tp4074
Rp4075
asg23
g24
(g25
(I0
tp4076
g27
tp4077
Rp4078
(I1
(I1
I2
tp4079
g14
I00
S't\x99\x99\x99\x99\x99\x01@tfffff\xfa\xbf'
p4080
tp4081
bsg33
I01
sbag1
(g2
g3
Ntp4082
Rp4083
(dp4084
g7
I9418
sg8
(lp4085
g10
(g14
S'R\x99\x99\x99\x99\x99\x1d@'
p4086
tp4087
Rp4088
ag10
(g14
S'\x06\xcd\xcc\xcc\xcc\xcc\x14@'
p4089
tp4090
Rp4091
asg23
g24
(g25
(I0
tp4092
g27
tp4093
Rp4094
(I1
(I1
I2
tp4095
g14
I00
S't\x99\x99\x99\x99\x99\x01@\xa8\x99\x99\x99\x99\x99\xf9\xbf'
p4096
tp4097
bsg33
I01
sbag1
(g2
g3
Ntp4098
Rp4099
(dp4100
g7
I9419
sg8
(lp4101
g10
(g14
S'q\x1e\x85\xebQ\xf8\x1c@'
p4102
tp4103
Rp4104
ag10
(g14
S'X\x85\xebQ\xb8^\x15@'
p4105
tp4106
Rp4107
asg23
g24
(g25
(I0
tp4108
g27
tp4109
Rp4110
(I1
(I1
I2
tp4111
g14
I00
S't\x99\x99\x99\x99\x99\x01@\xdc\xcc\xcc\xcc\xcc\xcc\xf8\xbf'
p4112
tp4113
bsg33
I01
sbag1
(g2
g3
Ntp4114
Rp4115
(dp4116
g7
I9420
sg8
(lp4117
g10
(g14
S'\x15\x8f\xc2\xf5(\\\x1c@'
p4118
tp4119
Rp4120
ag10
(g14
S'.)\\\x8f\xc2\xf5\x15@'
p4121
tp4122
Rp4123
asg23
g24
(g25
(I0
tp4124
g27
tp4125
Rp4126
(I1
(I1
I2
tp4127
g14
I00
S't\x99\x99\x99\x99\x99\x01@\x10\x00\x00\x00\x00\x00\xf8\xbf'
p4128
tp4129
bsg33
I01
sbag1
(g2
g3
Ntp4130
Rp4131
(dp4132
g7
I9514
sg8
(lp4133
g10
(g14
S'U\x14\xaeG\xe1\x9a @'
p4134
tp4135
Rp4136
ag10
(g14
S'\xfe\xf5(\\\x8f\x02\x12@'
p4137
tp4138
Rp4139
asg23
g24
(g25
(I0
tp4140
g27
tp4141
Rp4142
(I1
(I1
I2
tp4143
g14
I00
S'\xda\xff\xff\xff\xff\xff\x01@\xd8\xcc\xcc\xcc\xcc\xcc\xfc\xbf'
p4144
tp4145
bsg33
I01
sbag1
(g2
g3
Ntp4146
Rp4147
(dp4148
g7
I9515
sg8
(lp4149
g10
(g14
S'\xda\xff\xff\xff\xff? @'
p4150
tp4151
Rp4152
ag10
(g14
S';\x00\x00\x00\x00\x80\x12@'
p4153
tp4154
Rp4155
asg23
g24
(g25
(I0
tp4156
g27
tp4157
Rp4158
(I1
(I1
I2
tp4159
g14
I00
S'\xda\xff\xff\xff\xff\xff\x01@\x0c\x00\x00\x00\x00\x00\xfc\xbf'
p4160
tp4161
bsg33
I01
sbag1
(g2
g3
Ntp4162
Rp4163
(dp4164
g7
I9516
sg8
(lp4165
g10
(g14
S'D\xc2\xf5(\\\xcf\x1f@'
p4166
tp4167
Rp4168
ag10
(g14
S'\xfd\xf5(\\\x8f\x02\x13@'
p4169
tp4170
Rp4171
asg23
g24
(g25
(I0
tp4172
g27
tp4173
Rp4174
(I1
(I1
I2
tp4175
g14
I00
S'\xda\xff\xff\xff\xff\xff\x01@@33333\xfb\xbf'
p4176
tp4177
bsg33
I01
sbag1
(g2
g3
Ntp4178
Rp4179
(dp4180
g7
I9517
sg8
(lp4181
g10
(g14
S'Yp=\n\xd7#\x1f@'
p4182
tp4183
Rp4184
ag10
(g14
S'D\xd7\xa3p=\x8a\x13@'
p4185
tp4186
Rp4187
asg23
g24
(g25
(I0
tp4188
g27
tp4189
Rp4190
(I1
(I1
I2
tp4191
g14
I00
S'\xda\xff\xff\xff\xff\xff\x01@tfffff\xfa\xbf'
p4192
tp4193
bsg33
I01
sbag1
(g2
g3
Ntp4194
Rp4195
(dp4196
g7
I9518
sg8
(lp4197
g10
(g14
S'\xf3\t\xd7\xa3p}\x1e@'
p4198
tp4199
Rp4200
ag10
(g14
S'\x10\xa4p=\n\x17\x14@'
p4201
tp4202
Rp4203
asg23
g24
(g25
(I0
tp4204
g27
tp4205
Rp4206
(I1
(I1
I2
tp4207
g14
I00
S'\xda\xff\xff\xff\xff\xff\x01@\xa8\x99\x99\x99\x99\x99\xf9\xbf'
p4208
tp4209
bsg33
I01
sbag1
(g2
g3
Ntp4210
Rp4211
(dp4212
g7
I9519
sg8
(lp4213
g10
(g14
S'\x12\x8f\xc2\xf5(\xdc\x1d@'
p4214
tp4215
Rp4216
ag10
(g14
S'`\\\x8f\xc2\xf5\xa8\x14@'
p4217
tp4218
Rp4219
asg23
g24
(g25
(I0
tp4220
g27
tp4221
Rp4222
(I1
(I1
I2
tp4223
g14
I00
S'\xda\xff\xff\xff\xff\xff\x01@\xdc\xcc\xcc\xcc\xcc\xcc\xf8\xbf'
p4224
tp4225
bsg33
I01
sbag1
(g2
g3
Ntp4226
Rp4227
(dp4228
g7
I9613
sg8
(lp4229
g10
(g14
S'\xa6\xcc\xcc\xcc\xccl!@'
p4230
tp4231
Rp4232
ag10
(g14
S'\xd5\x99\x99\x99\x99\xd9\x10@'
p4233
tp4234
Rp4235
asg23
g24
(g25
(I0
tp4236
g27
tp4237
Rp4238
(I1
(I1
I2
tp4239
g14
I00
S'@fffff\x02@\xa4\x99\x99\x99\x99\x99\xfd\xbf'
p4240
tp4241
bsg33
I01
sbag1
(g2
g3
Ntp4242
Rp4243
(dp4244
g7
I9614
sg8
(lp4245
g10
(g14
S'h\xc2\xf5(\\\x0f!@'
p4246
tp4247
Rp4248
ag10
(g14
S'\x8c\xb8\x1e\x85\xebQ\x11@'
p4249
tp4250
Rp4251
asg23
g24
(g25
(I0
tp4252
g27
tp4253
Rp4254
(I1
(I1
I2
tp4255
g14
I00
S'@fffff\x02@\xd8\xcc\xcc\xcc\xcc\xcc\xfc\xbf'
p4256
tp4257
bsg33
I01
sbag1
(g2
g3
Ntp4258
Rp4259
(dp4260
g7
I9615
sg8
(lp4261
g10
(g14
S'\xee\xadG\xe1z\xb4 @'
p4262
tp4263
Rp4264
ag10
(g14
S'\xc9\xc2\xf5(\\\xcf\x11@'
p4265
tp4266
Rp4267
asg23
g24
(g25
(I0
tp4268
g27
tp4269
Rp4270
(I1
(I1
I2
tp4271
g14
I00
S'@fffff\x02@\x0c\x00\x00\x00\x00\x00\xfc\xbf'
p4272
tp4273
bsg33
I01
sbag1
(g2
g3
Ntp4274
Rp4275
(dp4276
g7
I9616
sg8
(lp4277
g10
(g14
S'6\x8f\xc2\xf5(\\ @'
p4278
tp4279
Rp4280
ag10
(g14
S'\x8b\xb8\x1e\x85\xebQ\x12@'
p4281
tp4282
Rp4283
asg23
g24
(g25
(I0
tp4284
g27
tp4285
Rp4286
(I1
(I1
I2
tp4287
g14
I00
S'@fffff\x02@@33333\xfb\xbf'
p4288
tp4289
bsg33
I01
sbag1
(g2
g3
Ntp4290
Rp4291
(dp4292
g7
I9617
sg8
(lp4293
g10
(g14
S'@ffff\x06 @'
p4294
tp4295
Rp4296
ag10
(g14
S'\xd2\x99\x99\x99\x99\xd9\x12@'
p4297
tp4298
Rp4299
asg23
g24
(g25
(I0
tp4300
g27
tp4301
Rp4302
(I1
(I1
I2
tp4303
g14
I00
S'@fffff\x02@tfffff\xfa\xbf'
p4304
tp4305
bsg33
I01
sbag1
(g2
g3
Ntp4306
Rp4307
(dp4308
g7
I9618
sg8
(lp4309
g10
(g14
S'\x1afffff\x1f@'
p4310
tp4311
Rp4312
ag10
(g14
S'\x9efffff\x13@'
p4313
tp4314
Rp4315
asg23
g24
(g25
(I0
tp4316
g27
tp4317
Rp4318
(I1
(I1
I2
tp4319
g14
I00
S'@fffff\x02@\xa8\x99\x99\x99\x99\x99\xf9\xbf'
p4320
tp4321
bsg33
I01
sbag1
(g2
g3
Ntp4322
Rp4323
(dp4324
g7
I9710
sg8
(lp4325
g10
(g14
S'\xc2Q\xb8\x1e\x85\x0b#@'
p4326
tp4327
Rp4328
ag10
(g14
S'\xc0\xe1z\x14\xae\xc7\r@'
p4329
tp4330
Rp4331
asg23
g24
(g25
(I0
tp4332
g27
tp4333
Rp4334
(I1
(I1
I2
tp4335
g14
I00
S'\xa6\xcc\xcc\xcc\xcc\xcc\x02@\x04\x00\x00\x00\x00\x00\x00\xc0'
p4336
tp4337
bsg33
I01
sbag1
(g2
g3
Ntp4338
Rp4339
(dp4340
g7
I9711
sg8
(lp4341
g10
(g14
S'=ffff\xa6"@'
p4342
tp4343
Rp4344
ag10
(g14
S'\x10\x9a\x99\x99\x99\x99\x0e@'
p4345
tp4346
Rp4347
asg23
g24
(g25
(I0
tp4348
g27
tp4349
Rp4350
(I1
(I1
I2
tp4351
g14
I00
S'\xa6\xcc\xcc\xcc\xcc\xcc\x02@<33333\xff\xbf'
p4352
tp4353
bsg33
I01
sbag1
(g2
g3
Ntp4354
Rp4355
(dp4356
g7
I9712
sg8
(lp4357
g10
(g14
S'{p=\n\xd7C"@'
p4358
tp4359
Rp4360
ag10
(g14
S'l)\\\x8f\xc2u\x0f@'
p4361
tp4362
Rp4363
asg23
g24
(g25
(I0
tp4364
g27
tp4365
Rp4366
(I1
(I1
I2
tp4367
g14
I00
S'\xa6\xcc\xcc\xcc\xcc\xcc\x02@pfffff\xfe\xbf'
p4368
tp4369
bsg33
I01
sbag1
(g2
g3
Ntp4370
Rp4371
(dp4372
g7
I9713
sg8
(lp4373
g10
(g14
S'{p=\n\xd7\xe3!@'
p4374
tp4375
Rp4376
ag10
(g14
S'\xe8G\xe1z\x14.\x10@'
p4377
tp4378
Rp4379
asg23
g24
(g25
(I0
tp4380
g27
tp4381
Rp4382
(I1
(I1
I2
tp4383
g14
I00
S'\xa6\xcc\xcc\xcc\xcc\xcc\x02@\xa4\x99\x99\x99\x99\x99\xfd\xbf'
p4384
tp4385
bsg33
I01
sbag1
(g2
g3
Ntp4386
Rp4387
(dp4388
g7
I9714
sg8
(lp4389
g10
(g14
S'>ffff\x86!@'
p4390
tp4391
Rp4392
ag10
(g14
S'\xa0ffff\xa6\x10@'
p4393
tp4394
Rp4395
asg23
g24
(g25
(I0
tp4396
g27
tp4397
Rp4398
(I1
(I1
I2
tp4399
g14
I00
S'\xa6\xcc\xcc\xcc\xcc\xcc\x02@\xd8\xcc\xcc\xcc\xcc\xcc\xfc\xbf'
p4400
tp4401
bsg33
I01
sbag1
(g2
g3
Ntp4402
Rp4403
(dp4404
g7
I9715
sg8
(lp4405
g10
(g14
S'\xc3Q\xb8\x1e\x85+!@'
p4406
tp4407
Rp4408
ag10
(g14
S'\xdcp=\n\xd7#\x11@'
p4409
tp4410
Rp4411
asg23
g24
(g25
(I0
tp4412
g27
tp4413
Rp4414
(I1
(I1
I2
tp4415
g14
I00
S'\xa6\xcc\xcc\xcc\xcc\xcc\x02@\x0c\x00\x00\x00\x00\x00\xfc\xbf'
p4416
tp4417
bsg33
I01
sbag1
(g2
g3
Ntp4418
Rp4419
(dp4420
g7
I9716
sg8
(lp4421
g10
(g14
S'\x0b3333\xd3 @'
p4422
tp4423
Rp4424
ag10
(g14
S'\x9effff\xa6\x11@'
p4425
tp4426
Rp4427
asg23
g24
(g25
(I0
tp4428
g27
tp4429
Rp4430
(I1
(I1
I2
tp4431
g14
I00
S'\xa6\xcc\xcc\xcc\xcc\xcc\x02@@33333\xfb\xbf'
p4432
tp4433
bsg33
I01
sbag1
(g2
g3
Ntp4434
Rp4435
(dp4436
g7
I9717
sg8
(lp4437
g10
(g14
S'\x16\n\xd7\xa3p} @'
p4438
tp4439
Rp4440
ag10
(g14
S'\xe5G\xe1z\x14.\x12@'
p4441
tp4442
Rp4443
asg23
g24
(g25
(I0
tp4444
g27
tp4445
Rp4446
(I1
(I1
I2
tp4447
g14
I00
S'\xa6\xcc\xcc\xcc\xcc\xcc\x02@tfffff\xfa\xbf'
p4448
tp4449
bsg33
I01
sbag1
(g2
g3
Ntp4450
Rp4451
(dp4452
g7
I9805
sg8
(lp4453
g10
(g14
S'X\xebQ\xb8\x1e\xa5%@'
p4454
tp4455
Rp4456
ag10
(g14
S'\xf5\x14\xaeG\xe1\xfa\x08@'
p4457
tp4458
Rp4459
asg23
g24
(g25
(I0
tp4460
g27
tp4461
Rp4462
(I1
(I1
I2
tp4463
g14
I00
S'\x0c33333\x03@\x02\x00\x00\x00\x00\x00\x02\xc0'
p4464
tp4465
bsg33
I01
sbag1
(g2
g3
Ntp4466
Rp4467
(dp4468
g7
I9806
sg8
(lp4469
g10
(g14
S'\x0633333%@'
p4470
tp4471
Rp4472
ag10
(g14
S'\x13\x9a\x99\x99\x99\x99\t@'
p4473
tp4474
Rp4475
asg23
g24
(g25
(I0
tp4476
g27
tp4477
Rp4478
(I1
(I1
I2
tp4479
g14
I00
S'\x0c33333\x03@\x9c\x99\x99\x99\x99\x99\x01\xc0'
p4480
tp4481
bsg33
I01
sbag1
(g2
g3
Ntp4482
Rp4483
(dp4484
g7
I9807
sg8
(lp4485
g10
(g14
S'xp=\n\xd7\xc3$@'
p4486
tp4487
Rp4488
ag10
(g14
S';\xf6(\\\x8fB\n@'
p4489
tp4490
Rp4491
asg23
g24
(g25
(I0
tp4492
g27
tp4493
Rp4494
(I1
(I1
I2
tp4495
g14
I00
S'\x0c33333\x03@633333\x01\xc0'
p4496
tp4497
bsg33
I01
sbag1
(g2
g3
Ntp4498
Rp4499
(dp4500
g7
I9808
sg8
(lp4501
g10
(g14
S'\xac\xa3p=\nW$@'
p4502
tp4503
Rp4504
ag10
(g14
S'm)\\\x8f\xc2\xf5\n@'
p4505
tp4506
Rp4507
asg23
g24
(g25
(I0
tp4508
g27
tp4509
Rp4510
(I1
(I1
I2
tp4511
g14
I00
S'\x0c33333\x03@\xd0\xcc\xcc\xcc\xcc\xcc\x00\xc0'
p4512
tp4513
bsg33
I01
sbag1
(g2
g3
Ntp4514
Rp4515
(dp4516
g7
I9809
sg8
(lp4517
g10
(g14
S'\xa2\xcc\xcc\xcc\xcc\xec#@'
p4518
tp4519
Rp4520
ag10
(g14
S'\xaa3333\xb3\x0b@'
p4521
tp4522
Rp4523
asg23
g24
(g25
(I0
tp4524
g27
tp4525
Rp4526
(I1
(I1
I2
tp4527
g14
I00
S'\x0c33333\x03@jfffff\x00\xc0'
p4528
tp4529
bsg33
I01
sbag1
(g2
g3
Ntp4530
Rp4531
(dp4532
g7
I9810
sg8
(lp4533
g10
(g14
S'Z\xebQ\xb8\x1e\x85#@'
p4534
tp4535
Rp4536
ag10
(g14
S'\xf0\x14\xaeG\xe1z\x0c@'
p4537
tp4538
Rp4539
asg23
g24
(g25
(I0
tp4540
g27
tp4541
Rp4542
(I1
(I1
I2
tp4543
g14
I00
S'\x0c33333\x03@\x04\x00\x00\x00\x00\x00\x00\xc0'
p4544
tp4545
bsg33
I01
sbag1
(g2
g3
Ntp4546
Rp4547
(dp4548
g7
I9811
sg8
(lp4549
g10
(g14
S'\xd5\xff\xff\xff\xff\x1f#@'
p4550
tp4551
Rp4552
ag10
(g14
S'@\xcd\xcc\xcc\xccL\r@'
p4553
tp4554
Rp4555
asg23
g24
(g25
(I0
tp4556
g27
tp4557
Rp4558
(I1
(I1
I2
tp4559
g14
I00
S'\x0c33333\x03@<33333\xff\xbf'
p4560
tp4561
bsg33
I01
sbag1
(g2
g3
Ntp4562
Rp4563
(dp4564
g7
I9812
sg8
(lp4565
g10
(g14
S'\x13\n\xd7\xa3p\xbd"@'
p4566
tp4567
Rp4568
ag10
(g14
S'\x9c\\\x8f\xc2\xf5(\x0e@'
p4569
tp4570
Rp4571
asg23
g24
(g25
(I0
tp4572
g27
tp4573
Rp4574
(I1
(I1
I2
tp4575
g14
I00
S'\x0c33333\x03@pfffff\xfe\xbf'
p4576
tp4577
bsg33
I01
sbag1
(g2
g3
Ntp4578
Rp4579
(dp4580
g7
I9813
sg8
(lp4581
g10
(g14
S'\x13\n\xd7\xa3p]"@'
p4582
tp4583
Rp4584
ag10
(g14
S'\x00\xc3\xf5(\\\x0f\x0f@'
p4585
tp4586
Rp4587
asg23
g24
(g25
(I0
tp4588
g27
tp4589
Rp4590
(I1
(I1
I2
tp4591
g14
I00
S'\x0c33333\x03@\xa4\x99\x99\x99\x99\x99\xfd\xbf'
p4592
tp4593
bsg33
I01
sbag1
(g2
g3
Ntp4594
Rp4595
(dp4596
g7
I9814
sg8
(lp4597
g10
(g14
S'\xd6\xff\xff\xff\xff\xff!@'
p4598
tp4599
Rp4600
ag10
(g14
S'8\x00\x00\x00\x00\x00\x10@'
p4601
tp4602
Rp4603
asg23
g24
(g25
(I0
tp4604
g27
tp4605
Rp4606
(I1
(I1
I2
tp4607
g14
I00
S'\x0c33333\x03@\xd8\xcc\xcc\xcc\xcc\xcc\xfc\xbf'
p4608
tp4609
bsg33
I01
sbag1
(g2
g3
Ntp4610
Rp4611
(dp4612
g7
I9815
sg8
(lp4613
g10
(g14
S'[\xebQ\xb8\x1e\xa5!@'
p4614
tp4615
Rp4616
ag10
(g14
S't\n\xd7\xa3p}\x10@'
p4617
tp4618
Rp4619
asg23
g24
(g25
(I0
tp4620
g27
tp4621
Rp4622
(I1
(I1
I2
tp4623
g14
I00
S'\x0c33333\x03@\x0c\x00\x00\x00\x00\x00\xfc\xbf'
p4624
tp4625
bsg33
I01
sbag1
(g2
g3
Ntp4626
Rp4627
(dp4628
g7
I9816
sg8
(lp4629
g10
(g14
S'\xa3\xcc\xcc\xcc\xccL!@'
p4630
tp4631
Rp4632
ag10
(g14
S'6\x00\x00\x00\x00\x00\x11@'
p4633
tp4634
Rp4635
asg23
g24
(g25
(I0
tp4636
g27
tp4637
Rp4638
(I1
(I1
I2
tp4639
g14
I00
S'\x0c33333\x03@@33333\xfb\xbf'
p4640
tp4641
bsg33
I01
sbag1
(g2
g3
Ntp4642
Rp4643
(dp4644
g7
I9817
sg8
(lp4645
g10
(g14
S'\xae\xa3p=\n\xf7 @'
p4646
tp4647
Rp4648
ag10
(g14
S'}\xe1z\x14\xae\x87\x11@'
p4649
tp4650
Rp4651
asg23
g24
(g25
(I0
tp4652
g27
tp4653
Rp4654
(I1
(I1
I2
tp4655
g14
I00
S'\x0c33333\x03@tfffff\xfa\xbf'
p4656
tp4657
bsg33
I01
sbag1
(g2
g3
Ntp4658
Rp4659
(dp4660
g7
I9900
sg8
(lp4661
g10
(g14
S'\xb1z\x14\xaeG\x81(@'
p4662
tp4663
Rp4664
ag10
(g14
S'3\x1f\x85\xebQ8\x05@'
p4665
tp4666
Rp4667
asg23
g24
(g25
(I0
tp4668
g27
tp4669
Rp4670
(I1
(I1
I2
tp4671
g14
I00
S'r\x99\x99\x99\x99\x99\x03@\x00\x00\x00\x00\x00\x00\x04\xc0'
p4672
tp4673
bsg33
I01
sbag1
(g2
g3
Ntp4674
Rp4675
(dp4676
g7
I9901
sg8
(lp4677
g10
(g14
S'\x93\xf5(\\\x8f\x02(@'
p4678
tp4679
Rp4680
ag10
(g14
S'\x1eq=\n\xd7\xa3\x05@'
p4681
tp4682
Rp4683
asg23
g24
(g25
(I0
tp4684
g27
tp4685
Rp4686
(I1
(I1
I2
tp4687
g14
I00
S'r\x99\x99\x99\x99\x99\x03@\x9a\x99\x99\x99\x99\x99\x03\xc0'
p4688
tp4689
bsg33
I01
sbag1
(g2
g3
Ntp4690
Rp4691
(dp4692
g7
I9902
sg8
(lp4693
g10
(g14
S"7ffff\x86'@"
p4694
tp4695
Rp4696
ag10
(g14
S'\x13\x9a\x99\x99\x99\x19\x06@'
p4697
tp4698
Rp4699
asg23
g24
(g25
(I0
tp4700
g27
tp4701
Rp4702
(I1
(I1
I2
tp4703
g14
I00
S'r\x99\x99\x99\x99\x99\x03@433333\x03\xc0'
p4704
tp4705
bsg33
I01
sbag1
(g2
g3
Ntp4706
Rp4707
(dp4708
g7
I9903
sg8
(lp4709
g10
(g14
S"\x9e\xcc\xcc\xcc\xcc\x0c'@"
p4710
tp4711
Rp4712
ag10
(g14
S'\x13\x9a\x99\x99\x99\x99\x06@'
p4713
tp4714
Rp4715
asg23
g24
(g25
(I0
tp4716
g27
tp4717
Rp4718
(I1
(I1
I2
tp4719
g14
I00
S'r\x99\x99\x99\x99\x99\x03@\xce\xcc\xcc\xcc\xcc\xcc\x02\xc0'
p4720
tp4721
bsg33
I01
sbag1
(g2
g3
Ntp4722
Rp4723
(dp4724
g7
I9904
sg8
(lp4725
g10
(g14
S'\xc8(\\\x8f\xc2\x95&@'
p4726
tp4727
Rp4728
ag10
(g14
S'\x1cq=\n\xd7#\x07@'
p4729
tp4730
Rp4731
asg23
g24
(g25
(I0
tp4732
g27
tp4733
Rp4734
(I1
(I1
I2
tp4735
g14
I00
S'r\x99\x99\x99\x99\x99\x03@hfffff\x02\xc0'
p4736
tp4737
bsg33
I01
sbag1
(g2
g3
Ntp4738
Rp4739
(dp4740
g7
I9905
sg8
(lp4741
g10
(g14
S'\xb3z\x14\xaeG!&@'
p4742
tp4743
Rp4744
ag10
(g14
S'0\x1f\x85\xebQ\xb8\x07@'
p4745
tp4746
Rp4747
asg23
g24
(g25
(I0
tp4748
g27
tp4749
Rp4750
(I1
(I1
I2
tp4751
g14
I00
S'r\x99\x99\x99\x99\x99\x03@\x02\x00\x00\x00\x00\x00\x02\xc0'
p4752
tp4753
bsg33
I01
sbag1
(g2
g3
Ntp4754
Rp4755
(dp4756
g7
I9906
sg8
(lp4757
g10
(g14
S'b\xc2\xf5(\\\xaf%@'
p4758
tp4759
Rp4760
ag10
(g14
S'N\xa4p=\nW\x08@'
p4761
tp4762
Rp4763
asg23
g24
(g25
(I0
tp4764
g27
tp4765
Rp4766
(I1
(I1
I2
tp4767
g14
I00
S'r\x99\x99\x99\x99\x99\x03@\x9c\x99\x99\x99\x99\x99\x01\xc0'
p4768
tp4769
bsg33
I01
sbag1
(g2
g3
Ntp4770
Rp4771
(dp4772
g7
I9907
sg8
(lp4773
g10
(g14
S'\xd2\xff\xff\xff\xff?%@'
p4774
tp4775
Rp4776
ag10
(g14
S'v\x00\x00\x00\x00\x00\t@'
p4777
tp4778
Rp4779
asg23
g24
(g25
(I0
tp4780
g27
tp4781
Rp4782
(I1
(I1
I2
tp4783
g14
I00
S'r\x99\x99\x99\x99\x99\x03@633333\x01\xc0'
p4784
tp4785
bsg33
I01
sbag1
(g2
g3
Ntp4786
Rp4787
(dp4788
g7
I9908
sg8
(lp4789
g10
(g14
S'\x063333\xd3$@'
p4790
tp4791
Rp4792
ag10
(g14
S'\xa83333\xb3\t@'
p4793
tp4794
Rp4795
asg23
g24
(g25
(I0
tp4796
g27
tp4797
Rp4798
(I1
(I1
I2
tp4799
g14
I00
S'r\x99\x99\x99\x99\x99\x03@\xd0\xcc\xcc\xcc\xcc\xcc\x00\xc0'
p4800
tp4801
bsg33
I01
sbag1
(g2
g3
Ntp4802
Rp4803
(dp4804
g7
I9909
sg8
(lp4805
g10
(g14
S'\xfc[\x8f\xc2\xf5h$@'
p4806
tp4807
Rp4808
ag10
(g14
S'\xe4=\n\xd7\xa3p\n@'
p4809
tp4810
Rp4811
asg23
g24
(g25
(I0
tp4812
g27
tp4813
Rp4814
(I1
(I1
I2
tp4815
g14
I00
S'r\x99\x99\x99\x99\x99\x03@jfffff\x00\xc0'
p4816
tp4817
bsg33
I01
sbag1
(g2
g3
Ntp4818
Rp4819
(dp4820
g7
I9910
sg8
(lp4821
g10
(g14
S'\xb5z\x14\xaeG\x01$@'
p4822
tp4823
Rp4824
ag10
(g14
S'+\x1f\x85\xebQ8\x0b@'
p4825
tp4826
Rp4827
asg23
g24
(g25
(I0
tp4828
g27
tp4829
Rp4830
(I1
(I1
I2
tp4831
g14
I00
S'r\x99\x99\x99\x99\x99\x03@\x04\x00\x00\x00\x00\x00\x00\xc0'
p4832
tp4833
bsg33
I01
sbag1
(g2
g3
Ntp4834
Rp4835
(dp4836
g7
I9911
sg8
(lp4837
g10
(g14
S'0\x8f\xc2\xf5(\x9c#@'
p4838
tp4839
Rp4840
ag10
(g14
S'|\xd7\xa3p=\n\x0c@'
p4841
tp4842
Rp4843
asg23
g24
(g25
(I0
tp4844
g27
tp4845
Rp4846
(I1
(I1
I2
tp4847
g14
I00
S'r\x99\x99\x99\x99\x99\x03@<33333\xff\xbf'
p4848
tp4849
bsg33
I01
sbag1
(g2
g3
Ntp4850
Rp4851
(dp4852
g7
I9912
sg8
(lp4853
g10
(g14
S'n\x99\x99\x99\x999#@'
p4854
tp4855
Rp4856
ag10
(g14
S'\xd6ffff\xe6\x0c@'
p4857
tp4858
Rp4859
asg23
g24
(g25
(I0
tp4860
g27
tp4861
Rp4862
(I1
(I1
I2
tp4863
g14
I00
S'r\x99\x99\x99\x99\x99\x03@pfffff\xfe\xbf'
p4864
tp4865
bsg33
I01
sbag1
(g2
g3
Ntp4866
Rp4867
(dp4868
g7
I9913
sg8
(lp4869
g10
(g14
S'n\x99\x99\x99\x99\xd9"@'
p4870
tp4871
Rp4872
ag10
(g14
S'<\xcd\xcc\xcc\xcc\xcc\r@'
p4873
tp4874
Rp4875
asg23
g24
(g25
(I0
tp4876
g27
tp4877
Rp4878
(I1
(I1
I2
tp4879
g14
I00
S'r\x99\x99\x99\x99\x99\x03@\xa4\x99\x99\x99\x99\x99\xfd\xbf'
p4880
tp4881
bsg33
I01
sbag1
(g2
g3
Ntp4882
Rp4883
(dp4884
g7
I9914
sg8
(lp4885
g10
(g14
S'1\x8f\xc2\xf5(|"@'
p4886
tp4887
Rp4888
ag10
(g14
S'\xaa\n\xd7\xa3p\xbd\x0e@'
p4889
tp4890
Rp4891
asg23
g24
(g25
(I0
tp4892
g27
tp4893
Rp4894
(I1
(I1
I2
tp4895
g14
I00
S'r\x99\x99\x99\x99\x99\x03@\xd8\xcc\xcc\xcc\xcc\xcc\xfc\xbf'
p4896
tp4897
bsg33
I01
sbag1
(g2
g3
Ntp4898
Rp4899
(dp4900
g7
I9915
sg8
(lp4901
g10
(g14
S'\xb6z\x14\xaeG!"@'
p4902
tp4903
Rp4904
ag10
(g14
S'$\x1f\x85\xebQ\xb8\x0f@'
p4905
tp4906
Rp4907
asg23
g24
(g25
(I0
tp4908
g27
tp4909
Rp4910
(I1
(I1
I2
tp4911
g14
I00
S'r\x99\x99\x99\x99\x99\x03@\x0c\x00\x00\x00\x00\x00\xfc\xbf'
p4912
tp4913
bsg33
I01
sbag1
(g2
g3
Ntp4914
Rp4915
(dp4916
g7
I9916
sg8
(lp4917
g10
(g14
S'\xfe[\x8f\xc2\xf5\xc8!@'
p4918
tp4919
Rp4920
ag10
(g14
S'T\x85\xebQ\xb8^\x10@'
p4921
tp4922
Rp4923
asg23
g24
(g25
(I0
tp4924
g27
tp4925
Rp4926
(I1
(I1
I2
tp4927
g14
I00
S'r\x99\x99\x99\x99\x99\x03@@33333\xfb\xbf'
p4928
tp4929
bsg33
I01
sba.